Component: ARM Compiler 5.06 update 7 (build 960) Tool: armlink [4d3601]

==============================================================================

Section Cross References

    startup_stm32f10x_md.o(STACK) refers (Special) to heapauxi.o(.text) for __use_two_region_memory
    startup_stm32f10x_md.o(HEAP) refers (Special) to heapauxi.o(.text) for __use_two_region_memory
    startup_stm32f10x_md.o(RESET) refers (Special) to heapauxi.o(.text) for __use_two_region_memory
    startup_stm32f10x_md.o(RESET) refers to startup_stm32f10x_md.o(STACK) for __initial_sp
    startup_stm32f10x_md.o(RESET) refers to startup_stm32f10x_md.o(.text) for Reset_Handler
    startup_stm32f10x_md.o(RESET) refers to stm32f10x_it.o(i.NMI_Handler) for NMI_Handler
    startup_stm32f10x_md.o(RESET) refers to stm32f10x_it.o(i.HardFault_Handler) for HardFault_Handler
    startup_stm32f10x_md.o(RESET) refers to stm32f10x_it.o(i.MemManage_Handler) for MemManage_Handler
    startup_stm32f10x_md.o(RESET) refers to stm32f10x_it.o(i.BusFault_Handler) for BusFault_Handler
    startup_stm32f10x_md.o(RESET) refers to stm32f10x_it.o(i.UsageFault_Handler) for UsageFault_Handler
    startup_stm32f10x_md.o(RESET) refers to stm32f10x_it.o(i.SVC_Handler) for SVC_Handler
    startup_stm32f10x_md.o(RESET) refers to stm32f10x_it.o(i.DebugMon_Handler) for DebugMon_Handler
    startup_stm32f10x_md.o(RESET) refers to stm32f10x_it.o(i.PendSV_Handler) for PendSV_Handler
    startup_stm32f10x_md.o(RESET) refers to stm32f10x_it.o(i.SysTick_Handler) for SysTick_Handler
    startup_stm32f10x_md.o(RESET) refers to ws2812.o(i.DMA1_Channel2_IRQHandler) for DMA1_Channel2_IRQHandler
    startup_stm32f10x_md.o(RESET) refers to esp8266.o(i.USART1_IRQHandler) for USART1_IRQHandler
    startup_stm32f10x_md.o(.text) refers (Special) to heapauxi.o(.text) for __use_two_region_memory
    startup_stm32f10x_md.o(.text) refers to system_stm32f10x.o(i.SystemInit) for SystemInit
    startup_stm32f10x_md.o(.text) refers to __main.o(!!!main) for __main
    startup_stm32f10x_md.o(.text) refers to startup_stm32f10x_md.o(HEAP) for Heap_Mem
    startup_stm32f10x_md.o(.text) refers to startup_stm32f10x_md.o(STACK) for Stack_Mem
    system_stm32f10x.o(i.SetSysClock) refers to system_stm32f10x.o(i.SetSysClockTo72) for SetSysClockTo72
    system_stm32f10x.o(i.SystemCoreClockUpdate) refers to system_stm32f10x.o(.data) for SystemCoreClock
    system_stm32f10x.o(i.SystemInit) refers to system_stm32f10x.o(i.SetSysClock) for SetSysClock
    stm32f10x_adc.o(i.ADC_DeInit) refers to stm32f10x_rcc.o(i.RCC_APB2PeriphResetCmd) for RCC_APB2PeriphResetCmd
    stm32f10x_bkp.o(i.BKP_DeInit) refers to stm32f10x_rcc.o(i.RCC_BackupResetCmd) for RCC_BackupResetCmd
    stm32f10x_can.o(i.CAN_DeInit) refers to stm32f10x_rcc.o(i.RCC_APB1PeriphResetCmd) for RCC_APB1PeriphResetCmd
    stm32f10x_can.o(i.CAN_GetITStatus) refers to stm32f10x_can.o(i.CheckITStatus) for CheckITStatus
    stm32f10x_cec.o(i.CEC_DeInit) refers to stm32f10x_rcc.o(i.RCC_APB1PeriphResetCmd) for RCC_APB1PeriphResetCmd
    stm32f10x_dac.o(i.DAC_DeInit) refers to stm32f10x_rcc.o(i.RCC_APB1PeriphResetCmd) for RCC_APB1PeriphResetCmd
    stm32f10x_flash.o(i.FLASH_EnableWriteProtection) refers to stm32f10x_flash.o(i.FLASH_WaitForLastOperation) for FLASH_WaitForLastOperation
    stm32f10x_flash.o(i.FLASH_EraseAllBank1Pages) refers to stm32f10x_flash.o(i.FLASH_WaitForLastBank1Operation) for FLASH_WaitForLastBank1Operation
    stm32f10x_flash.o(i.FLASH_EraseAllPages) refers to stm32f10x_flash.o(i.FLASH_WaitForLastOperation) for FLASH_WaitForLastOperation
    stm32f10x_flash.o(i.FLASH_EraseOptionBytes) refers to stm32f10x_flash.o(i.FLASH_GetReadOutProtectionStatus) for FLASH_GetReadOutProtectionStatus
    stm32f10x_flash.o(i.FLASH_EraseOptionBytes) refers to stm32f10x_flash.o(i.FLASH_WaitForLastOperation) for FLASH_WaitForLastOperation
    stm32f10x_flash.o(i.FLASH_ErasePage) refers to stm32f10x_flash.o(i.FLASH_WaitForLastOperation) for FLASH_WaitForLastOperation
    stm32f10x_flash.o(i.FLASH_ProgramHalfWord) refers to stm32f10x_flash.o(i.FLASH_WaitForLastOperation) for FLASH_WaitForLastOperation
    stm32f10x_flash.o(i.FLASH_ProgramOptionByteData) refers to stm32f10x_flash.o(i.FLASH_WaitForLastOperation) for FLASH_WaitForLastOperation
    stm32f10x_flash.o(i.FLASH_ProgramWord) refers to stm32f10x_flash.o(i.FLASH_WaitForLastOperation) for FLASH_WaitForLastOperation
    stm32f10x_flash.o(i.FLASH_ReadOutProtection) refers to stm32f10x_flash.o(i.FLASH_WaitForLastOperation) for FLASH_WaitForLastOperation
    stm32f10x_flash.o(i.FLASH_UserOptionByteConfig) refers to stm32f10x_flash.o(i.FLASH_WaitForLastOperation) for FLASH_WaitForLastOperation
    stm32f10x_flash.o(i.FLASH_WaitForLastBank1Operation) refers to stm32f10x_flash.o(i.FLASH_GetBank1Status) for FLASH_GetBank1Status
    stm32f10x_flash.o(i.FLASH_WaitForLastOperation) refers to stm32f10x_flash.o(i.FLASH_GetBank1Status) for FLASH_GetBank1Status
    stm32f10x_gpio.o(i.GPIO_AFIODeInit) refers to stm32f10x_rcc.o(i.RCC_APB2PeriphResetCmd) for RCC_APB2PeriphResetCmd
    stm32f10x_gpio.o(i.GPIO_DeInit) refers to stm32f10x_rcc.o(i.RCC_APB2PeriphResetCmd) for RCC_APB2PeriphResetCmd
    stm32f10x_i2c.o(i.I2C_DeInit) refers to stm32f10x_rcc.o(i.RCC_APB1PeriphResetCmd) for RCC_APB1PeriphResetCmd
    stm32f10x_i2c.o(i.I2C_Init) refers to stm32f10x_rcc.o(i.RCC_GetClocksFreq) for RCC_GetClocksFreq
    stm32f10x_pwr.o(i.PWR_DeInit) refers to stm32f10x_rcc.o(i.RCC_APB1PeriphResetCmd) for RCC_APB1PeriphResetCmd
    stm32f10x_rcc.o(i.RCC_GetClocksFreq) refers to stm32f10x_rcc.o(.data) for APBAHBPrescTable
    stm32f10x_rcc.o(i.RCC_WaitForHSEStartUp) refers to stm32f10x_rcc.o(i.RCC_GetFlagStatus) for RCC_GetFlagStatus
    stm32f10x_rtc.o(i.RTC_SetAlarm) refers to stm32f10x_rtc.o(i.RTC_EnterConfigMode) for RTC_EnterConfigMode
    stm32f10x_rtc.o(i.RTC_SetAlarm) refers to stm32f10x_rtc.o(i.RTC_ExitConfigMode) for RTC_ExitConfigMode
    stm32f10x_rtc.o(i.RTC_SetCounter) refers to stm32f10x_rtc.o(i.RTC_EnterConfigMode) for RTC_EnterConfigMode
    stm32f10x_rtc.o(i.RTC_SetCounter) refers to stm32f10x_rtc.o(i.RTC_ExitConfigMode) for RTC_ExitConfigMode
    stm32f10x_rtc.o(i.RTC_SetPrescaler) refers to stm32f10x_rtc.o(i.RTC_EnterConfigMode) for RTC_EnterConfigMode
    stm32f10x_rtc.o(i.RTC_SetPrescaler) refers to stm32f10x_rtc.o(i.RTC_ExitConfigMode) for RTC_ExitConfigMode
    stm32f10x_spi.o(i.I2S_Init) refers to stm32f10x_rcc.o(i.RCC_GetClocksFreq) for RCC_GetClocksFreq
    stm32f10x_spi.o(i.SPI_I2S_DeInit) refers to stm32f10x_rcc.o(i.RCC_APB2PeriphResetCmd) for RCC_APB2PeriphResetCmd
    stm32f10x_spi.o(i.SPI_I2S_DeInit) refers to stm32f10x_rcc.o(i.RCC_APB1PeriphResetCmd) for RCC_APB1PeriphResetCmd
    stm32f10x_tim.o(i.TIM_DeInit) refers to stm32f10x_rcc.o(i.RCC_APB2PeriphResetCmd) for RCC_APB2PeriphResetCmd
    stm32f10x_tim.o(i.TIM_DeInit) refers to stm32f10x_rcc.o(i.RCC_APB1PeriphResetCmd) for RCC_APB1PeriphResetCmd
    stm32f10x_tim.o(i.TIM_ETRClockMode1Config) refers to stm32f10x_tim.o(i.TIM_ETRConfig) for TIM_ETRConfig
    stm32f10x_tim.o(i.TIM_ETRClockMode2Config) refers to stm32f10x_tim.o(i.TIM_ETRConfig) for TIM_ETRConfig
    stm32f10x_tim.o(i.TIM_ICInit) refers to stm32f10x_tim.o(i.TI1_Config) for TI1_Config
    stm32f10x_tim.o(i.TIM_ICInit) refers to stm32f10x_tim.o(i.TIM_SetIC1Prescaler) for TIM_SetIC1Prescaler
    stm32f10x_tim.o(i.TIM_ICInit) refers to stm32f10x_tim.o(i.TI2_Config) for TI2_Config
    stm32f10x_tim.o(i.TIM_ICInit) refers to stm32f10x_tim.o(i.TIM_SetIC2Prescaler) for TIM_SetIC2Prescaler
    stm32f10x_tim.o(i.TIM_ICInit) refers to stm32f10x_tim.o(i.TI3_Config) for TI3_Config
    stm32f10x_tim.o(i.TIM_ICInit) refers to stm32f10x_tim.o(i.TIM_SetIC3Prescaler) for TIM_SetIC3Prescaler
    stm32f10x_tim.o(i.TIM_ICInit) refers to stm32f10x_tim.o(i.TI4_Config) for TI4_Config
    stm32f10x_tim.o(i.TIM_ICInit) refers to stm32f10x_tim.o(i.TIM_SetIC4Prescaler) for TIM_SetIC4Prescaler
    stm32f10x_tim.o(i.TIM_ITRxExternalClockConfig) refers to stm32f10x_tim.o(i.TIM_SelectInputTrigger) for TIM_SelectInputTrigger
    stm32f10x_tim.o(i.TIM_PWMIConfig) refers to stm32f10x_tim.o(i.TI1_Config) for TI1_Config
    stm32f10x_tim.o(i.TIM_PWMIConfig) refers to stm32f10x_tim.o(i.TIM_SetIC1Prescaler) for TIM_SetIC1Prescaler
    stm32f10x_tim.o(i.TIM_PWMIConfig) refers to stm32f10x_tim.o(i.TI2_Config) for TI2_Config
    stm32f10x_tim.o(i.TIM_PWMIConfig) refers to stm32f10x_tim.o(i.TIM_SetIC2Prescaler) for TIM_SetIC2Prescaler
    stm32f10x_tim.o(i.TIM_TIxExternalClockConfig) refers to stm32f10x_tim.o(i.TI2_Config) for TI2_Config
    stm32f10x_tim.o(i.TIM_TIxExternalClockConfig) refers to stm32f10x_tim.o(i.TI1_Config) for TI1_Config
    stm32f10x_tim.o(i.TIM_TIxExternalClockConfig) refers to stm32f10x_tim.o(i.TIM_SelectInputTrigger) for TIM_SelectInputTrigger
    stm32f10x_usart.o(i.USART_DeInit) refers to stm32f10x_rcc.o(i.RCC_APB2PeriphResetCmd) for RCC_APB2PeriphResetCmd
    stm32f10x_usart.o(i.USART_DeInit) refers to stm32f10x_rcc.o(i.RCC_APB1PeriphResetCmd) for RCC_APB1PeriphResetCmd
    stm32f10x_usart.o(i.USART_Init) refers to stm32f10x_rcc.o(i.RCC_GetClocksFreq) for RCC_GetClocksFreq
    stm32f10x_wwdg.o(i.WWDG_DeInit) refers to stm32f10x_rcc.o(i.RCC_APB1PeriphResetCmd) for RCC_APB1PeriphResetCmd
    main.o(i.RC522_System_Init) refers to beep.o(i.beepInit) for beepInit
    main.o(i.RC522_System_Init) refers to rc522.o(i.RC522_Init) for RC522_Init
    main.o(i.RC522_System_Init) refers to oled.o(i.OLED_Init) for OLED_Init
    main.o(i.RC522_System_Init) refers to oled.o(i.OLED_ColorTurn) for OLED_ColorTurn
    main.o(i.RC522_System_Init) refers to oled.o(i.OLED_DisplayTurn) for OLED_DisplayTurn
    main.o(i.RC522_System_Init) refers to esp8266.o(i.ESP8266_Init) for ESP8266_Init
    main.o(i.RC522_System_Init) refers to ws2812.o(i.ws2812bInit) for ws2812bInit
    main.o(i.RC522_System_Init) refers to button.o(i.buttonInit) for buttonInit
    main.o(i.RC522_System_Init) refers to relay.o(i.relay_init) for relay_init
    main.o(i.RC522_System_Init) refers to stm32f10x_gpio.o(i.GPIO_ResetBits) for GPIO_ResetBits
    main.o(i.RC522_System_Init) refers to rc522.o(i.delay_10ms) for delay_10ms
    main.o(i.RC522_System_Init) refers to rc522.o(i.PcdReset) for PcdReset
    main.o(i.RC522_System_Init) refers to rc522.o(i.PcdAntennaOff) for PcdAntennaOff
    main.o(i.RC522_System_Init) refers to rc522.o(i.PcdAntennaOn) for PcdAntennaOn
    main.o(i.RC522_System_Init) refers to rc522.o(i.M500PcdConfigISOType) for M500PcdConfigISOType
    main.o(i.RC522_System_Init) refers to stm32f10x_gpio.o(i.GPIO_SetBits) for GPIO_SetBits
    main.o(i.genRandCode) refers to rand.o(i.getRND) for getRND
    main.o(i.genRandCode) refers to commonfunction.o(i.HexToStr) for HexToStr
    main.o(i.genRandCode) refers to qrencode.o(i.QRcode_free) for QRcode_free
    main.o(i.genRandCode) refers to qrencode.o(i.QRcode_encodeString) for QRcode_encodeString
    main.o(i.genRandCode) refers to main.o(.data) for qrcode
    main.o(i.main) refers to main.o(i.RC522_System_Init) for RC522_System_Init
    main.o(i.main) refers to oled.o(i.OLED_Clear) for OLED_Clear
    main.o(i.main) refers to oled.o(i.OLED_ShowString) for OLED_ShowString
    main.o(i.main) refers to oled.o(i.OLED_Refresh) for OLED_Refresh
    main.o(i.main) refers to ws2812.o(i.rainbowCycle) for rainbowCycle
    main.o(i.main) refers to beep.o(i.beepOneSecOn) for beepOneSecOn
    main.o(i.main) refers to button.o(i.Key_Scan) for Key_Scan
    main.o(i.main) refers to rt_memclr_w.o(.text) for __aeabi_memclr4
    main.o(i.main) refers to strcat.o(.text) for strcat
    main.o(i.main) refers to esp8266.o(i.USART1_Send_Data) for USART1_Send_Data
    main.o(i.main) refers to delay.o(i.delay_ms) for delay_ms
    main.o(i.main) refers to esp8266.o(i.ESP8266_Send_Answer) for ESP8266_Send_Answer
    main.o(i.main) refers to strlen.o(.text) for strlen
    main.o(i.main) refers to main.o(i.genRandCode) for genRandCode
    main.o(i.main) refers to ws2812.o(i.ws2812bSetAll) for ws2812bSetAll
    main.o(i.main) refers to strstr.o(.text) for strstr
    main.o(i.main) refers to relay.o(i.relay_on) for relay_on
    main.o(i.main) refers to rc522.o(i.delay_10ms) for delay_10ms
    main.o(i.main) refers to relay.o(i.relay_off) for relay_off
    main.o(i.main) refers to main.o(.data) for modeFlag
    main.o(i.main) refers to esp8266.o(.data) for URecv_Index
    main.o(i.main) refers to esp8266.o(.bss) for URecv
    main.o(i.main) refers to rt_memclr.o(.text) for __aeabi_memclr
    main.o(i.main) refers to rc522.o(i.PcdRequest) for PcdRequest
    main.o(i.main) refers to rc522.o(i.PcdAnticoll) for PcdAnticoll
    main.o(i.main) refers to rc522.o(i.PcdSelect) for PcdSelect
    main.o(i.main) refers to rc522.o(i.PcdAuthState) for PcdAuthState
    main.o(i.main) refers to rc522.o(i.PcdRead) for PcdRead
    main.o(i.main) refers to commonfunction.o(i.HexToStr) for HexToStr
    main.o(i.main) refers to stm32f10x_gpio.o(i.GPIO_SetBits) for GPIO_SetBits
    main.o(i.main) refers to rc522.o(i.WaitCardOff) for WaitCardOff
    main.o(i.main) refers to stm32f10x_gpio.o(i.GPIO_ResetBits) for GPIO_ResetBits
    main.o(i.showQRCode) refers to oled.o(i.OLED_Clear) for OLED_Clear
    main.o(i.showQRCode) refers to oled.o(i.OLED_DrawPoint) for OLED_DrawPoint
    main.o(i.showQRCode) refers to oled.o(i.OLED_Refresh) for OLED_Refresh
    main.o(i.showQRCode) refers to main.o(.data) for qrcode
    beep.o(i.beepInit) refers to delay.o(i.delay_init) for delay_init
    beep.o(i.beepInit) refers to stm32f10x_rcc.o(i.RCC_APB2PeriphClockCmd) for RCC_APB2PeriphClockCmd
    beep.o(i.beepInit) refers to stm32f10x_gpio.o(i.GPIO_Init) for GPIO_Init
    beep.o(i.beepInit) refers to beep.o(i.beepState) for beepState
    beep.o(i.beepOff) refers to beep.o(i.beepState) for beepState
    beep.o(i.beepOn) refers to beep.o(i.beepState) for beepState
    beep.o(i.beepOneSecOn) refers to beep.o(i.beepState) for beepState
    beep.o(i.beepOneSecOn) refers to delay.o(i.delay_ms) for delay_ms
    beep.o(i.beepState) refers to stm32f10x_gpio.o(i.GPIO_WriteBit) for GPIO_WriteBit
    rc522.o(i.CalulateCRC) refers to rc522.o(i.ClearBitMask) for ClearBitMask
    rc522.o(i.CalulateCRC) refers to rc522.o(i.WriteRawRC) for WriteRawRC
    rc522.o(i.CalulateCRC) refers to rc522.o(i.SetBitMask) for SetBitMask
    rc522.o(i.CalulateCRC) refers to rc522.o(i.ReadRawRC) for ReadRawRC
    rc522.o(i.ClearBitMask) refers to rc522.o(i.ReadRawRC) for ReadRawRC
    rc522.o(i.ClearBitMask) refers to rc522.o(i.WriteRawRC) for WriteRawRC
    rc522.o(i.M500PcdConfigISOType) refers to rc522.o(i.ClearBitMask) for ClearBitMask
    rc522.o(i.M500PcdConfigISOType) refers to rc522.o(i.WriteRawRC) for WriteRawRC
    rc522.o(i.M500PcdConfigISOType) refers to rc522.o(i.delay_10ms) for delay_10ms
    rc522.o(i.M500PcdConfigISOType) refers to rc522.o(i.PcdAntennaOn) for PcdAntennaOn
    rc522.o(i.PcdAntennaOff) refers to rc522.o(i.ClearBitMask) for ClearBitMask
    rc522.o(i.PcdAntennaOn) refers to rc522.o(i.ReadRawRC) for ReadRawRC
    rc522.o(i.PcdAntennaOn) refers to rc522.o(i.SetBitMask) for SetBitMask
    rc522.o(i.PcdAnticoll) refers to rc522.o(i.ClearBitMask) for ClearBitMask
    rc522.o(i.PcdAnticoll) refers to rc522.o(i.WriteRawRC) for WriteRawRC
    rc522.o(i.PcdAnticoll) refers to rc522.o(i.PcdComMF522) for PcdComMF522
    rc522.o(i.PcdAnticoll) refers to rc522.o(i.SetBitMask) for SetBitMask
    rc522.o(i.PcdAuthState) refers to rc522.o(i.PcdComMF522) for PcdComMF522
    rc522.o(i.PcdAuthState) refers to rc522.o(i.ReadRawRC) for ReadRawRC
    rc522.o(i.PcdComMF522) refers to rc522.o(i.WriteRawRC) for WriteRawRC
    rc522.o(i.PcdComMF522) refers to rc522.o(i.ClearBitMask) for ClearBitMask
    rc522.o(i.PcdComMF522) refers to rc522.o(i.SetBitMask) for SetBitMask
    rc522.o(i.PcdComMF522) refers to rc522.o(i.ReadRawRC) for ReadRawRC
    rc522.o(i.PcdHalt) refers to rc522.o(i.CalulateCRC) for CalulateCRC
    rc522.o(i.PcdHalt) refers to rc522.o(i.PcdComMF522) for PcdComMF522
    rc522.o(i.PcdRead) refers to rc522.o(i.CalulateCRC) for CalulateCRC
    rc522.o(i.PcdRead) refers to rc522.o(i.PcdComMF522) for PcdComMF522
    rc522.o(i.PcdRequest) refers to rc522.o(i.ClearBitMask) for ClearBitMask
    rc522.o(i.PcdRequest) refers to rc522.o(i.WriteRawRC) for WriteRawRC
    rc522.o(i.PcdRequest) refers to rc522.o(i.SetBitMask) for SetBitMask
    rc522.o(i.PcdRequest) refers to rc522.o(i.PcdComMF522) for PcdComMF522
    rc522.o(i.PcdReset) refers to stm32f10x_gpio.o(i.GPIO_SetBits) for GPIO_SetBits
    rc522.o(i.PcdReset) refers to rc522.o(i.delay_10ms) for delay_10ms
    rc522.o(i.PcdReset) refers to stm32f10x_gpio.o(i.GPIO_ResetBits) for GPIO_ResetBits
    rc522.o(i.PcdReset) refers to rc522.o(i.ReadRawRC) for ReadRawRC
    rc522.o(i.PcdReset) refers to rc522.o(i.WriteRawRC) for WriteRawRC
    rc522.o(i.PcdSelect) refers to rc522.o(i.CalulateCRC) for CalulateCRC
    rc522.o(i.PcdSelect) refers to rc522.o(i.ClearBitMask) for ClearBitMask
    rc522.o(i.PcdSelect) refers to rc522.o(i.PcdComMF522) for PcdComMF522
    rc522.o(i.PcdWrite) refers to rc522.o(i.CalulateCRC) for CalulateCRC
    rc522.o(i.PcdWrite) refers to rc522.o(i.PcdComMF522) for PcdComMF522
    rc522.o(i.RC522_Init) refers to stm32f10x_rcc.o(i.RCC_APB2PeriphClockCmd) for RCC_APB2PeriphClockCmd
    rc522.o(i.RC522_Init) refers to stm32f10x_gpio.o(i.GPIO_Init) for GPIO_Init
    rc522.o(i.ReadRawRC) refers to stm32f10x_gpio.o(i.GPIO_ResetBits) for GPIO_ResetBits
    rc522.o(i.ReadRawRC) refers to stm32f10x_gpio.o(i.GPIO_SetBits) for GPIO_SetBits
    rc522.o(i.ReadRawRC) refers to stm32f10x_gpio.o(i.GPIO_ReadInputDataBit) for GPIO_ReadInputDataBit
    rc522.o(i.SetBitMask) refers to rc522.o(i.ReadRawRC) for ReadRawRC
    rc522.o(i.SetBitMask) refers to rc522.o(i.WriteRawRC) for WriteRawRC
    rc522.o(i.WaitCardOff) refers to rc522.o(i.PcdRequest) for PcdRequest
    rc522.o(i.WaitCardOff) refers to rc522.o(i.delay_10ms) for delay_10ms
    rc522.o(i.WriteRawRC) refers to stm32f10x_gpio.o(i.GPIO_ResetBits) for GPIO_ResetBits
    rc522.o(i.WriteRawRC) refers to stm32f10x_gpio.o(i.GPIO_SetBits) for GPIO_SetBits
    delay.o(i.delay_init) refers to misc.o(i.SysTick_CLKSourceConfig) for SysTick_CLKSourceConfig
    delay.o(i.delay_init) refers to system_stm32f10x.o(.data) for SystemCoreClock
    delay.o(i.delay_init) refers to delay.o(.data) for fac_us
    delay.o(i.delay_ms) refers to delay.o(.data) for fac_ms
    delay.o(i.delay_us) refers to delay.o(.data) for fac_us
    oled.o(i.I2C_Start) refers to stm32f10x_gpio.o(i.GPIO_SetBits) for GPIO_SetBits
    oled.o(i.I2C_Start) refers to oled.o(i.IIC_delay) for IIC_delay
    oled.o(i.I2C_Start) refers to stm32f10x_gpio.o(i.GPIO_ResetBits) for GPIO_ResetBits
    oled.o(i.I2C_Stop) refers to stm32f10x_gpio.o(i.GPIO_ResetBits) for GPIO_ResetBits
    oled.o(i.I2C_Stop) refers to stm32f10x_gpio.o(i.GPIO_SetBits) for GPIO_SetBits
    oled.o(i.I2C_Stop) refers to oled.o(i.IIC_delay) for IIC_delay
    oled.o(i.I2C_WaitAck) refers to stm32f10x_gpio.o(i.GPIO_SetBits) for GPIO_SetBits
    oled.o(i.I2C_WaitAck) refers to oled.o(i.IIC_delay) for IIC_delay
    oled.o(i.I2C_WaitAck) refers to stm32f10x_gpio.o(i.GPIO_ResetBits) for GPIO_ResetBits
    oled.o(i.OLED_Clear) refers to oled.o(i.OLED_Refresh) for OLED_Refresh
    oled.o(i.OLED_Clear) refers to oled.o(.bss) for OLED_GRAM
    oled.o(i.OLED_ColorTurn) refers to oled.o(i.OLED_WR_Byte) for OLED_WR_Byte
    oled.o(i.OLED_DisPlay_Off) refers to oled.o(i.OLED_WR_Byte) for OLED_WR_Byte
    oled.o(i.OLED_DisPlay_On) refers to oled.o(i.OLED_WR_Byte) for OLED_WR_Byte
    oled.o(i.OLED_DisplayTurn) refers to oled.o(i.OLED_WR_Byte) for OLED_WR_Byte
    oled.o(i.OLED_DrawCircle) refers to oled.o(i.OLED_DrawPoint) for OLED_DrawPoint
    oled.o(i.OLED_DrawLine) refers to oled.o(i.OLED_DrawPoint) for OLED_DrawPoint
    oled.o(i.OLED_DrawPoint) refers to oled.o(.bss) for OLED_GRAM
    oled.o(i.OLED_Init) refers to delay.o(i.delay_init) for delay_init
    oled.o(i.OLED_Init) refers to stm32f10x_rcc.o(i.RCC_APB2PeriphClockCmd) for RCC_APB2PeriphClockCmd
    oled.o(i.OLED_Init) refers to stm32f10x_gpio.o(i.GPIO_Init) for GPIO_Init
    oled.o(i.OLED_Init) refers to stm32f10x_gpio.o(i.GPIO_SetBits) for GPIO_SetBits
    oled.o(i.OLED_Init) refers to stm32f10x_gpio.o(i.GPIO_ResetBits) for GPIO_ResetBits
    oled.o(i.OLED_Init) refers to delay.o(i.delay_ms) for delay_ms
    oled.o(i.OLED_Init) refers to oled.o(i.OLED_WR_Byte) for OLED_WR_Byte
    oled.o(i.OLED_Init) refers to oled.o(i.OLED_Clear) for OLED_Clear
    oled.o(i.OLED_Refresh) refers to oled.o(i.OLED_WR_Byte) for OLED_WR_Byte
    oled.o(i.OLED_Refresh) refers to oled.o(i.I2C_Start) for I2C_Start
    oled.o(i.OLED_Refresh) refers to oled.o(i.Send_Byte) for Send_Byte
    oled.o(i.OLED_Refresh) refers to oled.o(i.I2C_WaitAck) for I2C_WaitAck
    oled.o(i.OLED_Refresh) refers to oled.o(i.I2C_Stop) for I2C_Stop
    oled.o(i.OLED_Refresh) refers to oled.o(.bss) for OLED_GRAM
    oled.o(i.OLED_ScrollDisplay) refers to oled.o(i.OLED_ShowChinese) for OLED_ShowChinese
    oled.o(i.OLED_ScrollDisplay) refers to oled.o(i.OLED_Refresh) for OLED_Refresh
    oled.o(i.OLED_ScrollDisplay) refers to oled.o(.bss) for OLED_GRAM
    oled.o(i.OLED_ShowChar) refers to oled.o(i.OLED_DrawPoint) for OLED_DrawPoint
    oled.o(i.OLED_ShowChar) refers to oled.o(.constdata) for asc2_0806
    oled.o(i.OLED_ShowChinese) refers to oled.o(i.OLED_DrawPoint) for OLED_DrawPoint
    oled.o(i.OLED_ShowChinese) refers to oled.o(.constdata) for Hzk1
    oled.o(i.OLED_ShowNum) refers to oled.o(i.OLED_Pow) for OLED_Pow
    oled.o(i.OLED_ShowNum) refers to oled.o(i.OLED_ShowChar) for OLED_ShowChar
    oled.o(i.OLED_ShowPicture) refers to oled.o(i.OLED_DrawPoint) for OLED_DrawPoint
    oled.o(i.OLED_ShowString) refers to oled.o(i.OLED_ShowChar) for OLED_ShowChar
    oled.o(i.OLED_WR_Byte) refers to oled.o(i.I2C_Start) for I2C_Start
    oled.o(i.OLED_WR_Byte) refers to oled.o(i.Send_Byte) for Send_Byte
    oled.o(i.OLED_WR_Byte) refers to oled.o(i.I2C_WaitAck) for I2C_WaitAck
    oled.o(i.OLED_WR_Byte) refers to oled.o(i.I2C_Stop) for I2C_Stop
    oled.o(i.Send_Byte) refers to stm32f10x_gpio.o(i.GPIO_SetBits) for GPIO_SetBits
    oled.o(i.Send_Byte) refers to stm32f10x_gpio.o(i.GPIO_ResetBits) for GPIO_ResetBits
    oled.o(i.Send_Byte) refers to oled.o(i.IIC_delay) for IIC_delay
    esp8266.o(i.ESP8266_Init) refers to delay.o(i.delay_init) for delay_init
    esp8266.o(i.ESP8266_Init) refers to esp8266.o(i.Uart1_Init) for Uart1_Init
    esp8266.o(i.ESP8266_Send_Answer) refers to strlen.o(.text) for strlen
    esp8266.o(i.ESP8266_Send_Answer) refers to esp8266.o(i.USART1_Send_Data) for USART1_Send_Data
    esp8266.o(i.ESP8266_Send_Answer) refers to strstr.o(.text) for strstr
    esp8266.o(i.ESP8266_Send_Answer) refers to delay.o(i.delay_ms) for delay_ms
    esp8266.o(i.ESP8266_Send_Answer) refers to rt_memclr.o(.text) for __aeabi_memclr
    esp8266.o(i.ESP8266_Send_Answer) refers to esp8266.o(.data) for URecv_Index
    esp8266.o(i.ESP8266_Send_Answer) refers to esp8266.o(.bss) for URecv
    esp8266.o(i.USART1_IRQHandler) refers to stm32f10x_usart.o(i.USART_GetITStatus) for USART_GetITStatus
    esp8266.o(i.USART1_IRQHandler) refers to esp8266.o(.data) for URecv_Index
    esp8266.o(i.USART1_IRQHandler) refers to esp8266.o(.bss) for URecv
    esp8266.o(i.USART1_Send_Data) refers to stm32f10x_usart.o(i.USART_GetFlagStatus) for USART_GetFlagStatus
    esp8266.o(i.USART1_Send_Data) refers to stm32f10x_usart.o(i.USART_SendData) for USART_SendData
    esp8266.o(i.Uart1_Init) refers to rt_memcpy_w.o(.text) for __aeabi_memcpy4
    esp8266.o(i.Uart1_Init) refers to stm32f10x_rcc.o(i.RCC_APB2PeriphClockCmd) for RCC_APB2PeriphClockCmd
    esp8266.o(i.Uart1_Init) refers to stm32f10x_rcc.o(i.RCC_AHBPeriphClockCmd) for RCC_AHBPeriphClockCmd
    esp8266.o(i.Uart1_Init) refers to stm32f10x_gpio.o(i.GPIO_Init) for GPIO_Init
    esp8266.o(i.Uart1_Init) refers to stm32f10x_usart.o(i.USART_Init) for USART_Init
    esp8266.o(i.Uart1_Init) refers to stm32f10x_usart.o(i.USART_ITConfig) for USART_ITConfig
    esp8266.o(i.Uart1_Init) refers to stm32f10x_usart.o(i.USART_Cmd) for USART_Cmd
    esp8266.o(i.Uart1_Init) refers to misc.o(i.NVIC_Init) for NVIC_Init
    esp8266.o(i.Uart1_Init) refers to esp8266.o(.constdata) for .constdata
    ws2812.o(i.DMA1_Channel2_IRQHandler) refers to stm32f10x_dma.o(i.DMA_ClearITPendingBit) for DMA_ClearITPendingBit
    ws2812.o(i.DMA1_Channel2_IRQHandler) refers to stm32f10x_tim.o(i.TIM_Cmd) for TIM_Cmd
    ws2812.o(i.DMA1_Channel2_IRQHandler) refers to stm32f10x_dma.o(i.DMA_Cmd) for DMA_Cmd
    ws2812.o(i.DMA1_Channel2_IRQHandler) refers to stm32f10x_dma.o(i.DMA_ClearFlag) for DMA_ClearFlag
    ws2812.o(i.DMA1_Channel2_IRQHandler) refers to stm32f10x_tim.o(i.TIM_DMACmd) for TIM_DMACmd
    ws2812.o(i.Wheel) refers to ws2812.o(i.setvalue) for setvalue
    ws2812.o(i.rainbow) refers to ws2812.o(i.Wheel) for Wheel
    ws2812.o(i.rainbow) refers to ws2812.o(i.ws2812bSet) for ws2812bSet
    ws2812.o(i.rainbow) refers to delay.o(i.delay_ms) for delay_ms
    ws2812.o(i.rainbowCycle) refers to ws2812.o(i.Wheel) for Wheel
    ws2812.o(i.rainbowCycle) refers to ws2812.o(i.ws2812bSet) for ws2812bSet
    ws2812.o(i.rainbowCycle) refers to delay.o(i.delay_ms) for delay_ms
    ws2812.o(i.ws2812bClear) refers to ws2812.o(i.ws2812bSet) for ws2812bSet
    ws2812.o(i.ws2812bClearAll) refers to rt_memclr.o(.text) for __aeabi_memclr
    ws2812.o(i.ws2812bClearAll) refers to ws2812.o(i.ws2812bSend) for ws2812bSend
    ws2812.o(i.ws2812bClearAll) refers to ws2812.o(.bss) for ws2812bBuff
    ws2812.o(i.ws2812bInit) refers to delay.o(i.delay_init) for delay_init
    ws2812.o(i.ws2812bInit) refers to stm32f10x_rcc.o(i.RCC_APB2PeriphClockCmd) for RCC_APB2PeriphClockCmd
    ws2812.o(i.ws2812bInit) refers to stm32f10x_rcc.o(i.RCC_AHBPeriphClockCmd) for RCC_AHBPeriphClockCmd
    ws2812.o(i.ws2812bInit) refers to stm32f10x_gpio.o(i.GPIO_Init) for GPIO_Init
    ws2812.o(i.ws2812bInit) refers to stm32f10x_tim.o(i.TIM_DeInit) for TIM_DeInit
    ws2812.o(i.ws2812bInit) refers to stm32f10x_tim.o(i.TIM_TimeBaseInit) for TIM_TimeBaseInit
    ws2812.o(i.ws2812bInit) refers to stm32f10x_tim.o(i.TIM_OC1Init) for TIM_OC1Init
    ws2812.o(i.ws2812bInit) refers to stm32f10x_tim.o(i.TIM_OC1PreloadConfig) for TIM_OC1PreloadConfig
    ws2812.o(i.ws2812bInit) refers to stm32f10x_tim.o(i.TIM_CtrlPWMOutputs) for TIM_CtrlPWMOutputs
    ws2812.o(i.ws2812bInit) refers to stm32f10x_tim.o(i.TIM_ARRPreloadConfig) for TIM_ARRPreloadConfig
    ws2812.o(i.ws2812bInit) refers to stm32f10x_dma.o(i.DMA_DeInit) for DMA_DeInit
    ws2812.o(i.ws2812bInit) refers to stm32f10x_dma.o(i.DMA_Init) for DMA_Init
    ws2812.o(i.ws2812bInit) refers to misc.o(i.NVIC_Init) for NVIC_Init
    ws2812.o(i.ws2812bInit) refers to stm32f10x_dma.o(i.DMA_ITConfig) for DMA_ITConfig
    ws2812.o(i.ws2812bInit) refers to ws2812.o(i.ws2812bClearAll) for ws2812bClearAll
    ws2812.o(i.ws2812bInit) refers to ws2812.o(.data) for GPIO_InitStruct
    ws2812.o(i.ws2812bInit) refers to ws2812.o(.bss) for TIM_TimeBaseStruct
    ws2812.o(i.ws2812bInit) refers to system_stm32f10x.o(.data) for SystemCoreClock
    ws2812.o(i.ws2812bSend) refers to stm32f10x_dma.o(i.DMA_SetCurrDataCounter) for DMA_SetCurrDataCounter
    ws2812.o(i.ws2812bSend) refers to stm32f10x_dma.o(i.DMA_Cmd) for DMA_Cmd
    ws2812.o(i.ws2812bSend) refers to stm32f10x_tim.o(i.TIM_DMACmd) for TIM_DMACmd
    ws2812.o(i.ws2812bSend) refers to stm32f10x_tim.o(i.TIM_Cmd) for TIM_Cmd
    ws2812.o(i.ws2812bSet) refers to ws2812.o(i.GRB_to_RGB) for GRB_to_RGB
    ws2812.o(i.ws2812bSet) refers to ws2812.o(i.ws2812bSend) for ws2812bSend
    ws2812.o(i.ws2812bSet) refers to ws2812.o(.bss) for ws2812bBuff
    ws2812.o(i.ws2812bSetAll) refers to ws2812.o(i.ws2812bSet) for ws2812bSet
    ws2812.o(i.ws2812bSet_RGB) refers to ws2812.o(i.ws2812bSet) for ws2812bSet
    ws2812.o(i.ws2812bTest) refers to ws2812.o(.data) for isInited
    servo.o(i.TIM3_PWM_Init) refers to stm32f10x_rcc.o(i.RCC_APB2PeriphClockCmd) for RCC_APB2PeriphClockCmd
    servo.o(i.TIM3_PWM_Init) refers to stm32f10x_gpio.o(i.GPIO_PinRemapConfig) for GPIO_PinRemapConfig
    servo.o(i.TIM3_PWM_Init) refers to stm32f10x_gpio.o(i.GPIO_Init) for GPIO_Init
    servo.o(i.TIM3_PWM_Init) refers to stm32f10x_rcc.o(i.RCC_APB1PeriphClockCmd) for RCC_APB1PeriphClockCmd
    servo.o(i.TIM3_PWM_Init) refers to stm32f10x_tim.o(i.TIM_TimeBaseInit) for TIM_TimeBaseInit
    servo.o(i.TIM3_PWM_Init) refers to stm32f10x_tim.o(i.TIM_OC2Init) for TIM_OC2Init
    servo.o(i.TIM3_PWM_Init) refers to stm32f10x_tim.o(i.TIM_OC2PreloadConfig) for TIM_OC2PreloadConfig
    servo.o(i.TIM3_PWM_Init) refers to stm32f10x_tim.o(i.TIM_Cmd) for TIM_Cmd
    rand.o(i.getRND) refers to rand.o(i.initRND) for initRND
    rand.o(i.getRND) refers to rt_memclr.o(.text) for __aeabi_memclr
    rand.o(i.getRND) refers to stm32f10x_adc.o(i.ADC_SoftwareStartConvCmd) for ADC_SoftwareStartConvCmd
    rand.o(i.getRND) refers to stm32f10x_adc.o(i.ADC_GetFlagStatus) for ADC_GetFlagStatus
    rand.o(i.getRND) refers to stm32f10x_adc.o(i.ADC_GetConversionValue) for ADC_GetConversionValue
    rand.o(i.getRND) refers to rand.o(.data) for isInitRND
    rand.o(i.initRND) refers to stm32f10x_rcc.o(i.RCC_APB2PeriphClockCmd) for RCC_APB2PeriphClockCmd
    rand.o(i.initRND) refers to stm32f10x_gpio.o(i.GPIO_Init) for GPIO_Init
    rand.o(i.initRND) refers to stm32f10x_adc.o(i.ADC_DeInit) for ADC_DeInit
    rand.o(i.initRND) refers to stm32f10x_adc.o(i.ADC_Init) for ADC_Init
    rand.o(i.initRND) refers to stm32f10x_adc.o(i.ADC_Cmd) for ADC_Cmd
    rand.o(i.initRND) refers to stm32f10x_adc.o(i.ADC_ResetCalibration) for ADC_ResetCalibration
    rand.o(i.initRND) refers to stm32f10x_adc.o(i.ADC_GetResetCalibrationStatus) for ADC_GetResetCalibrationStatus
    rand.o(i.initRND) refers to stm32f10x_adc.o(i.ADC_StartCalibration) for ADC_StartCalibration
    rand.o(i.initRND) refers to stm32f10x_adc.o(i.ADC_GetCalibrationStatus) for ADC_GetCalibrationStatus
    rand.o(i.initRND) refers to stm32f10x_adc.o(i.ADC_RegularChannelConfig) for ADC_RegularChannelConfig
    rand.o(i.initRND) refers to rand.o(.data) for isInitRND
    button.o(i.Key_Scan) refers to stm32f10x_gpio.o(i.GPIO_ReadInputDataBit) for GPIO_ReadInputDataBit
    button.o(i.buttonInit) refers to stm32f10x_rcc.o(i.RCC_APB2PeriphClockCmd) for RCC_APB2PeriphClockCmd
    button.o(i.buttonInit) refers to stm32f10x_gpio.o(i.GPIO_Init) for GPIO_Init
    relay.o(i.relay_init) refers to stm32f10x_rcc.o(i.RCC_APB2PeriphClockCmd) for RCC_APB2PeriphClockCmd
    relay.o(i.relay_init) refers to stm32f10x_gpio.o(i.GPIO_Init) for GPIO_Init
    relay.o(i.relay_off) refers to stm32f10x_gpio.o(i.GPIO_ResetBits) for GPIO_ResetBits
    relay.o(i.relay_on) refers to stm32f10x_gpio.o(i.GPIO_SetBits) for GPIO_SetBits
    bitstream.o(i.BitStream_append) refers to bitstream.o(i.BitStream_expand) for BitStream_expand
    bitstream.o(i.BitStream_append) refers to rt_memcpy_v6.o(.text) for __aeabi_memcpy
    bitstream.o(i.BitStream_appendBytes) refers to bitstream.o(i.BitStream_expand) for BitStream_expand
    bitstream.o(i.BitStream_appendBytes) refers to bitstream.o(i.BitStream_writeBytes) for BitStream_writeBytes
    bitstream.o(i.BitStream_appendNum) refers to bitstream.o(i.BitStream_expand) for BitStream_expand
    bitstream.o(i.BitStream_appendNum) refers to bitstream.o(i.BitStream_writeNum) for BitStream_writeNum
    bitstream.o(i.BitStream_expand) refers to h1_realloc.o(.text) for realloc
    bitstream.o(i.BitStream_free) refers to h1_free.o(.text) for free
    bitstream.o(i.BitStream_new) refers to h1_alloc.o(.text) for malloc
    bitstream.o(i.BitStream_new) refers to h1_free.o(.text) for free
    bitstream.o(i.BitStream_toByte) refers to h1_alloc.o(.text) for malloc
    mask.o(i.Mask_evaluateSymbol) refers to mask.o(i.Mask_calcN2) for Mask_calcN2
    mask.o(i.Mask_evaluateSymbol) refers to mask.o(i.Mask_calcRunLengthH) for Mask_calcRunLengthH
    mask.o(i.Mask_evaluateSymbol) refers to mask.o(i.Mask_calcN1N3) for Mask_calcN1N3
    mask.o(i.Mask_evaluateSymbol) refers to mask.o(i.Mask_calcRunLengthV) for Mask_calcRunLengthV
    mask.o(i.Mask_makeMask) refers to rt_errno_addr_intlibspace.o(.text) for __aeabi_errno_addr
    mask.o(i.Mask_makeMask) refers to h1_alloc.o(.text) for malloc
    mask.o(i.Mask_makeMask) refers to mask.o(i.Mask_writeFormatInformation) for Mask_writeFormatInformation
    mask.o(i.Mask_makeMask) refers to mask.o(.data) for maskMakers
    mask.o(i.Mask_mask) refers to h1_alloc.o(.text) for malloc
    mask.o(i.Mask_mask) refers to h1_free.o(.text) for free
    mask.o(i.Mask_mask) refers to mask.o(i.Mask_writeFormatInformation) for Mask_writeFormatInformation
    mask.o(i.Mask_mask) refers to mask.o(i.Mask_evaluateSymbol) for Mask_evaluateSymbol
    mask.o(i.Mask_mask) refers to rt_memcpy_v6.o(.text) for __aeabi_memcpy
    mask.o(i.Mask_mask) refers to mask.o(.data) for maskMakers
    mask.o(i.Mask_writeFormatInformation) refers to qrspec.o(i.QRspec_getFormatInfo) for QRspec_getFormatInfo
    mask.o(.data) refers to mask.o(i.Mask_mask0) for Mask_mask0
    mask.o(.data) refers to mask.o(i.Mask_mask1) for Mask_mask1
    mask.o(.data) refers to mask.o(i.Mask_mask2) for Mask_mask2
    mask.o(.data) refers to mask.o(i.Mask_mask3) for Mask_mask3
    mask.o(.data) refers to mask.o(i.Mask_mask4) for Mask_mask4
    mask.o(.data) refers to mask.o(i.Mask_mask5) for Mask_mask5
    mask.o(.data) refers to mask.o(i.Mask_mask6) for Mask_mask6
    mask.o(.data) refers to mask.o(i.Mask_mask7) for Mask_mask7
    mmask.o(i.MMask_makeMask) refers to rt_errno_addr_intlibspace.o(.text) for __aeabi_errno_addr
    mmask.o(i.MMask_makeMask) refers to mqrspec.o(i.MQRspec_getWidth) for MQRspec_getWidth
    mmask.o(i.MMask_makeMask) refers to h1_alloc.o(.text) for malloc
    mmask.o(i.MMask_makeMask) refers to mmask.o(i.MMask_writeFormatInformation) for MMask_writeFormatInformation
    mmask.o(i.MMask_makeMask) refers to mmask.o(.data) for maskMakers
    mmask.o(i.MMask_mask) refers to mqrspec.o(i.MQRspec_getWidth) for MQRspec_getWidth
    mmask.o(i.MMask_mask) refers to h1_alloc.o(.text) for malloc
    mmask.o(i.MMask_mask) refers to mmask.o(i.MMask_writeFormatInformation) for MMask_writeFormatInformation
    mmask.o(i.MMask_mask) refers to mmask.o(i.MMask_evaluateSymbol) for MMask_evaluateSymbol
    mmask.o(i.MMask_mask) refers to h1_free.o(.text) for free
    mmask.o(i.MMask_mask) refers to mmask.o(.data) for maskMakers
    mmask.o(i.MMask_writeFormatInformation) refers to mqrspec.o(i.MQRspec_getFormatInfo) for MQRspec_getFormatInfo
    mmask.o(.data) refers to mmask.o(i.Mask_mask0) for Mask_mask0
    mmask.o(.data) refers to mmask.o(i.Mask_mask1) for Mask_mask1
    mmask.o(.data) refers to mmask.o(i.Mask_mask2) for Mask_mask2
    mmask.o(.data) refers to mmask.o(i.Mask_mask3) for Mask_mask3
    mqrspec.o(i.MQRspec_createFrame) refers to h1_alloc.o(.text) for malloc
    mqrspec.o(i.MQRspec_createFrame) refers to rt_memclr.o(.text) for __aeabi_memclr
    mqrspec.o(i.MQRspec_createFrame) refers to mqrspec.o(i.putFinderPattern) for putFinderPattern
    mqrspec.o(i.MQRspec_createFrame) refers to aeabi_memset.o(.text) for __aeabi_memset
    mqrspec.o(i.MQRspec_createFrame) refers to mqrspec.o(.constdata) for mqrspecCapacity
    mqrspec.o(i.MQRspec_getDataLength) refers to mqrspec.o(i.MQRspec_getDataLengthBit) for MQRspec_getDataLengthBit
    mqrspec.o(i.MQRspec_getDataLengthBit) refers to mqrspec.o(.constdata) for mqrspecCapacity
    mqrspec.o(i.MQRspec_getECCLength) refers to mqrspec.o(.constdata) for mqrspecCapacity
    mqrspec.o(i.MQRspec_getFormatInfo) refers to mqrspec.o(.constdata) for typeTable
    mqrspec.o(i.MQRspec_getWidth) refers to mqrspec.o(.constdata) for mqrspecCapacity
    mqrspec.o(i.MQRspec_lengthIndicator) refers to mqrspec.o(.constdata) for lengthTableBits
    mqrspec.o(i.MQRspec_maximumWords) refers to mqrspec.o(.constdata) for lengthTableBits
    mqrspec.o(i.MQRspec_newFrame) refers to mqrspec.o(i.MQRspec_createFrame) for MQRspec_createFrame
    mqrspec.o(i.putFinderPattern) refers to mqrspec.o(.constdata) for finder
    qrencode.o(i.MQRraw_free) refers to h1_free.o(.text) for free
    qrencode.o(i.MQRraw_new) refers to h1_alloc.o(.text) for malloc
    qrencode.o(i.MQRraw_new) refers to mqrspec.o(i.MQRspec_getDataLength) for MQRspec_getDataLength
    qrencode.o(i.MQRraw_new) refers to mqrspec.o(i.MQRspec_getECCLength) for MQRspec_getECCLength
    qrencode.o(i.MQRraw_new) refers to mqrspec.o(i.MQRspec_getDataLengthBit) for MQRspec_getDataLengthBit
    qrencode.o(i.MQRraw_new) refers to qrinput.o(i.QRinput_getByteStream) for QRinput_getByteStream
    qrencode.o(i.MQRraw_new) refers to h1_free.o(.text) for free
    qrencode.o(i.MQRraw_new) refers to calloc.o(.text) for calloc
    qrencode.o(i.MQRraw_new) refers to qrencode.o(i.MQRraw_free) for MQRraw_free
    qrencode.o(i.MQRraw_new) refers to qrencode.o(i.RSblock_initBlock) for RSblock_initBlock
    qrencode.o(i.QRcode_List_free) refers to qrencode.o(i.QRcode_List_freeEntry) for QRcode_List_freeEntry
    qrencode.o(i.QRcode_List_freeEntry) refers to qrencode.o(i.QRcode_free) for QRcode_free
    qrencode.o(i.QRcode_List_freeEntry) refers to h1_free.o(.text) for free
    qrencode.o(i.QRcode_List_newEntry) refers to h1_alloc.o(.text) for malloc
    qrencode.o(i.QRcode_encodeData) refers to qrencode.o(i.QRcode_encodeDataReal) for QRcode_encodeDataReal
    qrencode.o(i.QRcode_encodeDataMQR) refers to qrencode.o(i.QRcode_encodeDataReal) for QRcode_encodeDataReal
    qrencode.o(i.QRcode_encodeDataReal) refers to rt_errno_addr_intlibspace.o(.text) for __aeabi_errno_addr
    qrencode.o(i.QRcode_encodeDataReal) refers to qrinput.o(i.QRinput_newMQR) for QRinput_newMQR
    qrencode.o(i.QRcode_encodeDataReal) refers to qrinput.o(i.QRinput_new2) for QRinput_new2
    qrencode.o(i.QRcode_encodeDataReal) refers to qrinput.o(i.QRinput_append) for QRinput_append
    qrencode.o(i.QRcode_encodeDataReal) refers to qrinput.o(i.QRinput_free) for QRinput_free
    qrencode.o(i.QRcode_encodeDataReal) refers to qrencode.o(i.QRcode_encodeInput) for QRcode_encodeInput
    qrencode.o(i.QRcode_encodeDataStructured) refers to qrencode.o(i.QRcode_encodeDataStructuredReal) for QRcode_encodeDataStructuredReal
    qrencode.o(i.QRcode_encodeDataStructuredReal) refers to rt_errno_addr_intlibspace.o(.text) for __aeabi_errno_addr
    qrencode.o(i.QRcode_encodeDataStructuredReal) refers to qrinput.o(i.QRinput_new2) for QRinput_new2
    qrencode.o(i.QRcode_encodeDataStructuredReal) refers to qrinput.o(i.QRinput_append) for QRinput_append
    qrencode.o(i.QRcode_encodeDataStructuredReal) refers to split.o(i.Split_splitStringToQRinput) for Split_splitStringToQRinput
    qrencode.o(i.QRcode_encodeDataStructuredReal) refers to qrinput.o(i.QRinput_free) for QRinput_free
    qrencode.o(i.QRcode_encodeDataStructuredReal) refers to qrencode.o(i.QRcode_encodeInputToStructured) for QRcode_encodeInputToStructured
    qrencode.o(i.QRcode_encodeInput) refers to qrencode.o(i.QRcode_encodeMaskMQR) for QRcode_encodeMaskMQR
    qrencode.o(i.QRcode_encodeInput) refers to qrencode.o(i.QRcode_encodeMask) for QRcode_encodeMask
    qrencode.o(i.QRcode_encodeInputStructured) refers to qrencode.o(i.QRcode_List_newEntry) for QRcode_List_newEntry
    qrencode.o(i.QRcode_encodeInputStructured) refers to qrencode.o(i.QRcode_encodeInput) for QRcode_encodeInput
    qrencode.o(i.QRcode_encodeInputStructured) refers to qrencode.o(i.QRcode_List_free) for QRcode_List_free
    qrencode.o(i.QRcode_encodeInputToStructured) refers to qrinput.o(i.QRinput_splitQRinputToStruct) for QRinput_splitQRinputToStruct
    qrencode.o(i.QRcode_encodeInputToStructured) refers to qrencode.o(i.QRcode_encodeInputStructured) for QRcode_encodeInputStructured
    qrencode.o(i.QRcode_encodeInputToStructured) refers to qrinput.o(i.QRinput_Struct_free) for QRinput_Struct_free
    qrencode.o(i.QRcode_encodeMask) refers to rt_errno_addr_intlibspace.o(.text) for __aeabi_errno_addr
    qrencode.o(i.QRcode_encodeMask) refers to qrencode.o(i.QRraw_new) for QRraw_new
    qrencode.o(i.QRcode_encodeMask) refers to qrspec.o(i.QRspec_getWidth) for QRspec_getWidth
    qrencode.o(i.QRcode_encodeMask) refers to qrspec.o(i.QRspec_newFrame) for QRspec_newFrame
    qrencode.o(i.QRcode_encodeMask) refers to qrencode.o(i.QRraw_free) for QRraw_free
    qrencode.o(i.QRcode_encodeMask) refers to qrencode.o(i.FrameFiller_set) for FrameFiller_set
    qrencode.o(i.QRcode_encodeMask) refers to qrencode.o(i.QRraw_getCode) for QRraw_getCode
    qrencode.o(i.QRcode_encodeMask) refers to qrencode.o(i.FrameFiller_next) for FrameFiller_next
    qrencode.o(i.QRcode_encodeMask) refers to qrspec.o(i.QRspec_getRemainder) for QRspec_getRemainder
    qrencode.o(i.QRcode_encodeMask) refers to h1_alloc.o(.text) for malloc
    qrencode.o(i.QRcode_encodeMask) refers to rt_memcpy_v6.o(.text) for __aeabi_memcpy
    qrencode.o(i.QRcode_encodeMask) refers to mask.o(i.Mask_mask) for Mask_mask
    qrencode.o(i.QRcode_encodeMask) refers to mask.o(i.Mask_makeMask) for Mask_makeMask
    qrencode.o(i.QRcode_encodeMask) refers to qrencode.o(i.QRcode_new) for QRcode_new
    qrencode.o(i.QRcode_encodeMask) refers to h1_free.o(.text) for free
    qrencode.o(i.QRcode_encodeMaskMQR) refers to rt_errno_addr_intlibspace.o(.text) for __aeabi_errno_addr
    qrencode.o(i.QRcode_encodeMaskMQR) refers to qrencode.o(i.MQRraw_new) for MQRraw_new
    qrencode.o(i.QRcode_encodeMaskMQR) refers to mqrspec.o(i.MQRspec_getWidth) for MQRspec_getWidth
    qrencode.o(i.QRcode_encodeMaskMQR) refers to mqrspec.o(i.MQRspec_newFrame) for MQRspec_newFrame
    qrencode.o(i.QRcode_encodeMaskMQR) refers to qrencode.o(i.MQRraw_free) for MQRraw_free
    qrencode.o(i.QRcode_encodeMaskMQR) refers to qrencode.o(i.FrameFiller_set) for FrameFiller_set
    qrencode.o(i.QRcode_encodeMaskMQR) refers to qrencode.o(i.MQRraw_getCode) for MQRraw_getCode
    qrencode.o(i.QRcode_encodeMaskMQR) refers to qrencode.o(i.FrameFiller_next) for FrameFiller_next
    qrencode.o(i.QRcode_encodeMaskMQR) refers to h1_alloc.o(.text) for malloc
    qrencode.o(i.QRcode_encodeMaskMQR) refers to rt_memcpy_v6.o(.text) for __aeabi_memcpy
    qrencode.o(i.QRcode_encodeMaskMQR) refers to mmask.o(i.MMask_mask) for MMask_mask
    qrencode.o(i.QRcode_encodeMaskMQR) refers to mmask.o(i.MMask_makeMask) for MMask_makeMask
    qrencode.o(i.QRcode_encodeMaskMQR) refers to qrencode.o(i.QRcode_new) for QRcode_new
    qrencode.o(i.QRcode_encodeMaskMQR) refers to h1_free.o(.text) for free
    qrencode.o(i.QRcode_encodeString) refers to qrencode.o(i.QRcode_encodeStringReal) for QRcode_encodeStringReal
    qrencode.o(i.QRcode_encodeString8bit) refers to rt_errno_addr_intlibspace.o(.text) for __aeabi_errno_addr
    qrencode.o(i.QRcode_encodeString8bit) refers to strlen.o(.text) for strlen
    qrencode.o(i.QRcode_encodeString8bit) refers to qrencode.o(i.QRcode_encodeDataReal) for QRcode_encodeDataReal
    qrencode.o(i.QRcode_encodeString8bitMQR) refers to rt_errno_addr_intlibspace.o(.text) for __aeabi_errno_addr
    qrencode.o(i.QRcode_encodeString8bitMQR) refers to strlen.o(.text) for strlen
    qrencode.o(i.QRcode_encodeString8bitMQR) refers to qrencode.o(i.QRcode_encodeDataReal) for QRcode_encodeDataReal
    qrencode.o(i.QRcode_encodeString8bitStructured) refers to rt_errno_addr_intlibspace.o(.text) for __aeabi_errno_addr
    qrencode.o(i.QRcode_encodeString8bitStructured) refers to strlen.o(.text) for strlen
    qrencode.o(i.QRcode_encodeString8bitStructured) refers to qrencode.o(i.QRcode_encodeDataStructured) for QRcode_encodeDataStructured
    qrencode.o(i.QRcode_encodeStringMQR) refers to qrencode.o(i.QRcode_encodeStringReal) for QRcode_encodeStringReal
    qrencode.o(i.QRcode_encodeStringReal) refers to rt_errno_addr_intlibspace.o(.text) for __aeabi_errno_addr
    qrencode.o(i.QRcode_encodeStringReal) refers to qrinput.o(i.QRinput_newMQR) for QRinput_newMQR
    qrencode.o(i.QRcode_encodeStringReal) refers to qrinput.o(i.QRinput_new2) for QRinput_new2
    qrencode.o(i.QRcode_encodeStringReal) refers to split.o(i.Split_splitStringToQRinput) for Split_splitStringToQRinput
    qrencode.o(i.QRcode_encodeStringReal) refers to qrinput.o(i.QRinput_free) for QRinput_free
    qrencode.o(i.QRcode_encodeStringReal) refers to qrencode.o(i.QRcode_encodeInput) for QRcode_encodeInput
    qrencode.o(i.QRcode_encodeStringStructured) refers to rt_errno_addr_intlibspace.o(.text) for __aeabi_errno_addr
    qrencode.o(i.QRcode_encodeStringStructured) refers to strlen.o(.text) for strlen
    qrencode.o(i.QRcode_encodeStringStructured) refers to qrencode.o(i.QRcode_encodeDataStructuredReal) for QRcode_encodeDataStructuredReal
    qrencode.o(i.QRcode_free) refers to h1_free.o(.text) for free
    qrencode.o(i.QRcode_new) refers to h1_alloc.o(.text) for malloc
    qrencode.o(i.QRraw_free) refers to h1_free.o(.text) for free
    qrencode.o(i.QRraw_new) refers to h1_alloc.o(.text) for malloc
    qrencode.o(i.QRraw_new) refers to qrinput.o(i.QRinput_getByteStream) for QRinput_getByteStream
    qrencode.o(i.QRraw_new) refers to h1_free.o(.text) for free
    qrencode.o(i.QRraw_new) refers to qrspec.o(i.QRspec_getEccSpec) for QRspec_getEccSpec
    qrencode.o(i.QRraw_new) refers to calloc.o(.text) for calloc
    qrencode.o(i.QRraw_new) refers to qrencode.o(i.QRraw_free) for QRraw_free
    qrencode.o(i.QRraw_new) refers to qrencode.o(i.RSblock_init) for RSblock_init
    qrencode.o(i.RSblock_init) refers to qrencode.o(i.RSblock_initBlock) for RSblock_initBlock
    qrencode.o(i.RSblock_initBlock) refers to rsecc.o(i.RSECC_encode) for RSECC_encode
    qrinput.o(i.QRinput_InputList_freeEntry) refers to qrinput.o(i.QRinput_free) for QRinput_free
    qrinput.o(i.QRinput_InputList_freeEntry) refers to h1_free.o(.text) for free
    qrinput.o(i.QRinput_InputList_newEntry) refers to h1_alloc.o(.text) for malloc
    qrinput.o(i.QRinput_List_dup) refers to h1_alloc.o(.text) for malloc
    qrinput.o(i.QRinput_List_dup) refers to h1_free.o(.text) for free
    qrinput.o(i.QRinput_List_dup) refers to rt_memcpy_v6.o(.text) for __aeabi_memcpy
    qrinput.o(i.QRinput_List_freeEntry) refers to h1_free.o(.text) for free
    qrinput.o(i.QRinput_List_freeEntry) refers to bitstream.o(i.BitStream_free) for BitStream_free
    qrinput.o(i.QRinput_List_newEntry) refers to qrinput.o(i.QRinput_check) for QRinput_check
    qrinput.o(i.QRinput_List_newEntry) refers to rt_errno_addr_intlibspace.o(.text) for __aeabi_errno_addr
    qrinput.o(i.QRinput_List_newEntry) refers to h1_alloc.o(.text) for malloc
    qrinput.o(i.QRinput_List_newEntry) refers to h1_free.o(.text) for free
    qrinput.o(i.QRinput_List_newEntry) refers to rt_memcpy_v6.o(.text) for __aeabi_memcpy
    qrinput.o(i.QRinput_List_shrinkEntry) refers to h1_alloc.o(.text) for malloc
    qrinput.o(i.QRinput_List_shrinkEntry) refers to rt_memcpy_v6.o(.text) for __aeabi_memcpy
    qrinput.o(i.QRinput_List_shrinkEntry) refers to h1_free.o(.text) for free
    qrinput.o(i.QRinput_Struct_appendInput) refers to rt_errno_addr_intlibspace.o(.text) for __aeabi_errno_addr
    qrinput.o(i.QRinput_Struct_appendInput) refers to qrinput.o(i.QRinput_InputList_newEntry) for QRinput_InputList_newEntry
    qrinput.o(i.QRinput_Struct_calcParity) refers to qrinput.o(i.QRinput_calcParity) for QRinput_calcParity
    qrinput.o(i.QRinput_Struct_calcParity) refers to qrinput.o(i.QRinput_Struct_setParity) for QRinput_Struct_setParity
    qrinput.o(i.QRinput_Struct_free) refers to qrinput.o(i.QRinput_InputList_freeEntry) for QRinput_InputList_freeEntry
    qrinput.o(i.QRinput_Struct_free) refers to h1_free.o(.text) for free
    qrinput.o(i.QRinput_Struct_insertStructuredAppendHeaders) refers to qrinput.o(i.QRinput_Struct_calcParity) for QRinput_Struct_calcParity
    qrinput.o(i.QRinput_Struct_insertStructuredAppendHeaders) refers to qrinput.o(i.QRinput_insertStructuredAppendHeader) for QRinput_insertStructuredAppendHeader
    qrinput.o(i.QRinput_Struct_new) refers to h1_alloc.o(.text) for malloc
    qrinput.o(i.QRinput_append) refers to qrinput.o(i.QRinput_List_newEntry) for QRinput_List_newEntry
    qrinput.o(i.QRinput_append) refers to qrinput.o(i.QRinput_appendEntry) for QRinput_appendEntry
    qrinput.o(i.QRinput_appendECIheader) refers to rt_errno_addr_intlibspace.o(.text) for __aeabi_errno_addr
    qrinput.o(i.QRinput_appendECIheader) refers to qrinput.o(i.QRinput_append) for QRinput_append
    qrinput.o(i.QRinput_appendPaddingBit) refers to qrspec.o(i.QRspec_getDataLength) for QRspec_getDataLength
    qrinput.o(i.QRinput_appendPaddingBit) refers to rt_errno_addr_intlibspace.o(.text) for __aeabi_errno_addr
    qrinput.o(i.QRinput_appendPaddingBit) refers to bitstream.o(i.BitStream_appendNum) for BitStream_appendNum
    qrinput.o(i.QRinput_appendPaddingBitMQR) refers to mqrspec.o(i.MQRspec_getDataLengthBit) for MQRspec_getDataLengthBit
    qrinput.o(i.QRinput_appendPaddingBitMQR) refers to rt_errno_addr_intlibspace.o(.text) for __aeabi_errno_addr
    qrinput.o(i.QRinput_appendPaddingBitMQR) refers to bitstream.o(i.BitStream_appendNum) for BitStream_appendNum
    qrinput.o(i.QRinput_check) refers to qrinput.o(i.QRinput_checkModeNum) for QRinput_checkModeNum
    qrinput.o(i.QRinput_check) refers to qrinput.o(i.QRinput_checkModeAn) for QRinput_checkModeAn
    qrinput.o(i.QRinput_check) refers to qrinput.o(i.QRinput_checkModeKanji) for QRinput_checkModeKanji
    qrinput.o(i.QRinput_check) refers to qrinput.o(i.QRinput_checkModeFNC1Second) for QRinput_checkModeFNC1Second
    qrinput.o(i.QRinput_checkModeAn) refers to qrinput.o(.constdata) for QRinput_anTable
    qrinput.o(i.QRinput_convertData) refers to qrinput.o(i.QRinput_estimateVersion) for QRinput_estimateVersion
    qrinput.o(i.QRinput_convertData) refers to qrinput.o(i.QRinput_getVersion) for QRinput_getVersion
    qrinput.o(i.QRinput_convertData) refers to qrinput.o(i.QRinput_setVersion) for QRinput_setVersion
    qrinput.o(i.QRinput_convertData) refers to qrinput.o(i.QRinput_createBitStream) for QRinput_createBitStream
    qrinput.o(i.QRinput_convertData) refers to qrspec.o(i.QRspec_getMinimumVersion) for QRspec_getMinimumVersion
    qrinput.o(i.QRinput_createBitStream) refers to qrinput.o(i.QRinput_encodeBitStream) for QRinput_encodeBitStream
    qrinput.o(i.QRinput_dup) refers to qrinput.o(i.QRinput_newMQR) for QRinput_newMQR
    qrinput.o(i.QRinput_dup) refers to qrinput.o(i.QRinput_new2) for QRinput_new2
    qrinput.o(i.QRinput_dup) refers to qrinput.o(i.QRinput_List_dup) for QRinput_List_dup
    qrinput.o(i.QRinput_dup) refers to qrinput.o(i.QRinput_free) for QRinput_free
    qrinput.o(i.QRinput_dup) refers to qrinput.o(i.QRinput_appendEntry) for QRinput_appendEntry
    qrinput.o(i.QRinput_encodeBitStream) refers to mqrspec.o(i.MQRspec_maximumWords) for MQRspec_maximumWords
    qrinput.o(i.QRinput_encodeBitStream) refers to qrspec.o(i.QRspec_maximumWords) for QRspec_maximumWords
    qrinput.o(i.QRinput_encodeBitStream) refers to qrinput.o(i.QRinput_List_newEntry) for QRinput_List_newEntry
    qrinput.o(i.QRinput_encodeBitStream) refers to qrinput.o(i.QRinput_List_freeEntry) for QRinput_List_freeEntry
    qrinput.o(i.QRinput_encodeBitStream) refers to qrinput.o(i.QRinput_encodeModeNum) for QRinput_encodeModeNum
    qrinput.o(i.QRinput_encodeBitStream) refers to qrinput.o(i.QRinput_encodeModeAn) for QRinput_encodeModeAn
    qrinput.o(i.QRinput_encodeBitStream) refers to qrinput.o(i.QRinput_encodeMode8) for QRinput_encodeMode8
    qrinput.o(i.QRinput_encodeBitStream) refers to qrinput.o(i.QRinput_encodeModeKanji) for QRinput_encodeModeKanji
    qrinput.o(i.QRinput_encodeBitStream) refers to qrinput.o(i.QRinput_encodeModeStructure) for QRinput_encodeModeStructure
    qrinput.o(i.QRinput_encodeBitStream) refers to qrinput.o(i.QRinput_encodeModeECI) for QRinput_encodeModeECI
    qrinput.o(i.QRinput_encodeBitStream) refers to qrinput.o(i.QRinput_encodeModeFNC1Second) for QRinput_encodeModeFNC1Second
    qrinput.o(i.QRinput_encodeMode8) refers to rt_errno_addr_intlibspace.o(.text) for __aeabi_errno_addr
    qrinput.o(i.QRinput_encodeMode8) refers to bitstream.o(i.BitStream_appendNum) for BitStream_appendNum
    qrinput.o(i.QRinput_encodeMode8) refers to mqrspec.o(i.MQRspec_lengthIndicator) for MQRspec_lengthIndicator
    qrinput.o(i.QRinput_encodeMode8) refers to qrspec.o(i.QRspec_lengthIndicator) for QRspec_lengthIndicator
    qrinput.o(i.QRinput_encodeMode8) refers to bitstream.o(i.BitStream_appendBytes) for BitStream_appendBytes
    qrinput.o(i.QRinput_encodeModeAn) refers to rt_errno_addr_intlibspace.o(.text) for __aeabi_errno_addr
    qrinput.o(i.QRinput_encodeModeAn) refers to bitstream.o(i.BitStream_appendNum) for BitStream_appendNum
    qrinput.o(i.QRinput_encodeModeAn) refers to mqrspec.o(i.MQRspec_lengthIndicator) for MQRspec_lengthIndicator
    qrinput.o(i.QRinput_encodeModeAn) refers to qrspec.o(i.QRspec_lengthIndicator) for QRspec_lengthIndicator
    qrinput.o(i.QRinput_encodeModeAn) refers to qrinput.o(.constdata) for QRinput_anTable
    qrinput.o(i.QRinput_encodeModeECI) refers to qrinput.o(i.QRinput_decodeECIfromByteArray) for QRinput_decodeECIfromByteArray
    qrinput.o(i.QRinput_encodeModeECI) refers to bitstream.o(i.BitStream_appendNum) for BitStream_appendNum
    qrinput.o(i.QRinput_encodeModeFNC1Second) refers to bitstream.o(i.BitStream_appendNum) for BitStream_appendNum
    qrinput.o(i.QRinput_encodeModeFNC1Second) refers to bitstream.o(i.BitStream_appendBytes) for BitStream_appendBytes
    qrinput.o(i.QRinput_encodeModeKanji) refers to rt_errno_addr_intlibspace.o(.text) for __aeabi_errno_addr
    qrinput.o(i.QRinput_encodeModeKanji) refers to bitstream.o(i.BitStream_appendNum) for BitStream_appendNum
    qrinput.o(i.QRinput_encodeModeKanji) refers to mqrspec.o(i.MQRspec_lengthIndicator) for MQRspec_lengthIndicator
    qrinput.o(i.QRinput_encodeModeKanji) refers to qrspec.o(i.QRspec_lengthIndicator) for QRspec_lengthIndicator
    qrinput.o(i.QRinput_encodeModeNum) refers to bitstream.o(i.BitStream_appendNum) for BitStream_appendNum
    qrinput.o(i.QRinput_encodeModeNum) refers to mqrspec.o(i.MQRspec_lengthIndicator) for MQRspec_lengthIndicator
    qrinput.o(i.QRinput_encodeModeNum) refers to qrspec.o(i.QRspec_lengthIndicator) for QRspec_lengthIndicator
    qrinput.o(i.QRinput_encodeModeStructure) refers to rt_errno_addr_intlibspace.o(.text) for __aeabi_errno_addr
    qrinput.o(i.QRinput_encodeModeStructure) refers to bitstream.o(i.BitStream_appendNum) for BitStream_appendNum
    qrinput.o(i.QRinput_estimateBitStreamSize) refers to qrinput.o(i.QRinput_estimateBitStreamSizeOfEntry) for QRinput_estimateBitStreamSizeOfEntry
    qrinput.o(i.QRinput_estimateBitStreamSizeOfEntry) refers to qrinput.o(i.QRinput_estimateBitsModeNum) for QRinput_estimateBitsModeNum
    qrinput.o(i.QRinput_estimateBitStreamSizeOfEntry) refers to qrinput.o(i.QRinput_estimateBitsModeAn) for QRinput_estimateBitsModeAn
    qrinput.o(i.QRinput_estimateBitStreamSizeOfEntry) refers to qrinput.o(i.QRinput_estimateBitsMode8) for QRinput_estimateBitsMode8
    qrinput.o(i.QRinput_estimateBitStreamSizeOfEntry) refers to qrinput.o(i.QRinput_estimateBitsModeKanji) for QRinput_estimateBitsModeKanji
    qrinput.o(i.QRinput_estimateBitStreamSizeOfEntry) refers to qrinput.o(i.QRinput_estimateBitsModeECI) for QRinput_estimateBitsModeECI
    qrinput.o(i.QRinput_estimateBitStreamSizeOfEntry) refers to mqrspec.o(i.MQRspec_lengthIndicator) for MQRspec_lengthIndicator
    qrinput.o(i.QRinput_estimateBitStreamSizeOfEntry) refers to qrspec.o(i.QRspec_lengthIndicator) for QRspec_lengthIndicator
    qrinput.o(i.QRinput_estimateBitsModeECI) refers to qrinput.o(i.QRinput_decodeECIfromByteArray) for QRinput_decodeECIfromByteArray
    qrinput.o(i.QRinput_estimateVersion) refers to qrinput.o(i.QRinput_estimateBitStreamSize) for QRinput_estimateBitStreamSize
    qrinput.o(i.QRinput_estimateVersion) refers to qrspec.o(i.QRspec_getMinimumVersion) for QRspec_getMinimumVersion
    qrinput.o(i.QRinput_free) refers to qrinput.o(i.QRinput_List_freeEntry) for QRinput_List_freeEntry
    qrinput.o(i.QRinput_free) refers to h1_free.o(.text) for free
    qrinput.o(i.QRinput_getBitStream) refers to qrinput.o(i.QRinput_mergeBitStream) for QRinput_mergeBitStream
    qrinput.o(i.QRinput_getBitStream) refers to qrinput.o(i.QRinput_appendPaddingBitMQR) for QRinput_appendPaddingBitMQR
    qrinput.o(i.QRinput_getBitStream) refers to qrinput.o(i.QRinput_appendPaddingBit) for QRinput_appendPaddingBit
    qrinput.o(i.QRinput_getByteStream) refers to bitstream.o(i.BitStream_new) for BitStream_new
    qrinput.o(i.QRinput_getByteStream) refers to qrinput.o(i.QRinput_getBitStream) for QRinput_getBitStream
    qrinput.o(i.QRinput_getByteStream) refers to bitstream.o(i.BitStream_free) for BitStream_free
    qrinput.o(i.QRinput_getByteStream) refers to bitstream.o(i.BitStream_toByte) for BitStream_toByte
    qrinput.o(i.QRinput_insertFNC1Header) refers to qrinput.o(i.QRinput_List_newEntry) for QRinput_List_newEntry
    qrinput.o(i.QRinput_insertStructuredAppendHeader) refers to rt_errno_addr_intlibspace.o(.text) for __aeabi_errno_addr
    qrinput.o(i.QRinput_insertStructuredAppendHeader) refers to qrinput.o(i.QRinput_List_newEntry) for QRinput_List_newEntry
    qrinput.o(i.QRinput_lengthOfCode) refers to qrspec.o(i.QRspec_lengthIndicator) for QRspec_lengthIndicator
    qrinput.o(i.QRinput_lengthOfCode) refers to qrspec.o(i.QRspec_maximumWords) for QRspec_maximumWords
    qrinput.o(i.QRinput_mergeBitStream) refers to qrinput.o(i.QRinput_createBitStream) for QRinput_createBitStream
    qrinput.o(i.QRinput_mergeBitStream) refers to qrinput.o(i.QRinput_insertFNC1Header) for QRinput_insertFNC1Header
    qrinput.o(i.QRinput_mergeBitStream) refers to qrinput.o(i.QRinput_convertData) for QRinput_convertData
    qrinput.o(i.QRinput_new) refers to qrinput.o(i.QRinput_new2) for QRinput_new2
    qrinput.o(i.QRinput_new2) refers to rt_errno_addr_intlibspace.o(.text) for __aeabi_errno_addr
    qrinput.o(i.QRinput_new2) refers to h1_alloc.o(.text) for malloc
    qrinput.o(i.QRinput_newMQR) refers to mqrspec.o(i.MQRspec_getECCLength) for MQRspec_getECCLength
    qrinput.o(i.QRinput_newMQR) refers to qrinput.o(i.QRinput_new2) for QRinput_new2
    qrinput.o(i.QRinput_newMQR) refers to rt_errno_addr_intlibspace.o(.text) for __aeabi_errno_addr
    qrinput.o(i.QRinput_setErrorCorrectionLevel) refers to rt_errno_addr_intlibspace.o(.text) for __aeabi_errno_addr
    qrinput.o(i.QRinput_setFNC1First) refers to rt_errno_addr_intlibspace.o(.text) for __aeabi_errno_addr
    qrinput.o(i.QRinput_setFNC1Second) refers to rt_errno_addr_intlibspace.o(.text) for __aeabi_errno_addr
    qrinput.o(i.QRinput_setVersion) refers to rt_errno_addr_intlibspace.o(.text) for __aeabi_errno_addr
    qrinput.o(i.QRinput_setVersionAndErrorCorrectionLevel) refers to mqrspec.o(i.MQRspec_getECCLength) for MQRspec_getECCLength
    qrinput.o(i.QRinput_setVersionAndErrorCorrectionLevel) refers to rt_errno_addr_intlibspace.o(.text) for __aeabi_errno_addr
    qrinput.o(i.QRinput_splitEntry) refers to qrinput.o(i.QRinput_List_newEntry) for QRinput_List_newEntry
    qrinput.o(i.QRinput_splitEntry) refers to qrinput.o(i.QRinput_List_shrinkEntry) for QRinput_List_shrinkEntry
    qrinput.o(i.QRinput_splitEntry) refers to qrinput.o(i.QRinput_List_freeEntry) for QRinput_List_freeEntry
    qrinput.o(i.QRinput_splitQRinputToStruct) refers to rt_errno_addr_intlibspace.o(.text) for __aeabi_errno_addr
    qrinput.o(i.QRinput_splitQRinputToStruct) refers to qrinput.o(i.QRinput_Struct_new) for QRinput_Struct_new
    qrinput.o(i.QRinput_splitQRinputToStruct) refers to qrinput.o(i.QRinput_dup) for QRinput_dup
    qrinput.o(i.QRinput_splitQRinputToStruct) refers to qrinput.o(i.QRinput_Struct_free) for QRinput_Struct_free
    qrinput.o(i.QRinput_splitQRinputToStruct) refers to qrinput.o(i.QRinput_calcParity) for QRinput_calcParity
    qrinput.o(i.QRinput_splitQRinputToStruct) refers to qrinput.o(i.QRinput_Struct_setParity) for QRinput_Struct_setParity
    qrinput.o(i.QRinput_splitQRinputToStruct) refers to qrspec.o(i.QRspec_getDataLength) for QRspec_getDataLength
    qrinput.o(i.QRinput_splitQRinputToStruct) refers to bitstream.o(i.BitStream_new) for BitStream_new
    qrinput.o(i.QRinput_splitQRinputToStruct) refers to qrinput.o(i.QRinput_estimateBitStreamSizeOfEntry) for QRinput_estimateBitStreamSizeOfEntry
    qrinput.o(i.QRinput_splitQRinputToStruct) refers to qrinput.o(i.QRinput_encodeBitStream) for QRinput_encodeBitStream
    qrinput.o(i.QRinput_splitQRinputToStruct) refers to qrinput.o(i.QRinput_lengthOfCode) for QRinput_lengthOfCode
    qrinput.o(i.QRinput_splitQRinputToStruct) refers to qrinput.o(i.QRinput_new2) for QRinput_new2
    qrinput.o(i.QRinput_splitQRinputToStruct) refers to qrinput.o(i.QRinput_splitEntry) for QRinput_splitEntry
    qrinput.o(i.QRinput_splitQRinputToStruct) refers to qrinput.o(i.QRinput_free) for QRinput_free
    qrinput.o(i.QRinput_splitQRinputToStruct) refers to qrinput.o(i.QRinput_Struct_appendInput) for QRinput_Struct_appendInput
    qrinput.o(i.QRinput_splitQRinputToStruct) refers to bitstream.o(i.BitStream_free) for BitStream_free
    qrinput.o(i.QRinput_splitQRinputToStruct) refers to qrinput.o(i.QRinput_Struct_insertStructuredAppendHeaders) for QRinput_Struct_insertStructuredAppendHeaders
    qrspec.o(i.QRspec_createFrame) refers to h1_alloc.o(.text) for malloc
    qrspec.o(i.QRspec_createFrame) refers to rt_memclr.o(.text) for __aeabi_memclr
    qrspec.o(i.QRspec_createFrame) refers to qrspec.o(i.putFinderPattern) for putFinderPattern
    qrspec.o(i.QRspec_createFrame) refers to aeabi_memset.o(.text) for __aeabi_memset
    qrspec.o(i.QRspec_createFrame) refers to qrspec.o(i.QRspec_putAlignmentPattern) for QRspec_putAlignmentPattern
    qrspec.o(i.QRspec_createFrame) refers to qrspec.o(i.QRspec_getVersionPattern) for QRspec_getVersionPattern
    qrspec.o(i.QRspec_createFrame) refers to qrspec.o(.constdata) for qrspecCapacity
    qrspec.o(i.QRspec_getDataLength) refers to qrspec.o(.constdata) for qrspecCapacity
    qrspec.o(i.QRspec_getECCLength) refers to qrspec.o(.constdata) for qrspecCapacity
    qrspec.o(i.QRspec_getEccSpec) refers to qrspec.o(i.QRspec_getDataLength) for QRspec_getDataLength
    qrspec.o(i.QRspec_getEccSpec) refers to qrspec.o(i.QRspec_getECCLength) for QRspec_getECCLength
    qrspec.o(i.QRspec_getEccSpec) refers to qrspec.o(.constdata) for eccTable
    qrspec.o(i.QRspec_getFormatInfo) refers to qrspec.o(.constdata) for formatInfo
    qrspec.o(i.QRspec_getMinimumVersion) refers to qrspec.o(.constdata) for qrspecCapacity
    qrspec.o(i.QRspec_getRemainder) refers to qrspec.o(.constdata) for qrspecCapacity
    qrspec.o(i.QRspec_getVersionPattern) refers to qrspec.o(.constdata) for versionPattern
    qrspec.o(i.QRspec_getWidth) refers to qrspec.o(.constdata) for qrspecCapacity
    qrspec.o(i.QRspec_lengthIndicator) refers to qrinput.o(i.QRinput_isSplittableMode) for QRinput_isSplittableMode
    qrspec.o(i.QRspec_lengthIndicator) refers to qrspec.o(.constdata) for lengthTableBits
    qrspec.o(i.QRspec_maximumWords) refers to qrinput.o(i.QRinput_isSplittableMode) for QRinput_isSplittableMode
    qrspec.o(i.QRspec_maximumWords) refers to qrspec.o(.constdata) for lengthTableBits
    qrspec.o(i.QRspec_newFrame) refers to qrspec.o(i.QRspec_createFrame) for QRspec_createFrame
    qrspec.o(i.QRspec_putAlignmentMarker) refers to qrspec.o(.constdata) for finder
    qrspec.o(i.QRspec_putAlignmentPattern) refers to qrspec.o(i.QRspec_putAlignmentMarker) for QRspec_putAlignmentMarker
    qrspec.o(i.QRspec_putAlignmentPattern) refers to qrspec.o(.constdata) for alignmentPattern
    qrspec.o(i.putFinderPattern) refers to qrspec.o(.constdata) for finder
    rsecc.o(i.RSECC_encode) refers to rsecc.o(i.RSECC_init) for RSECC_init
    rsecc.o(i.RSECC_encode) refers to rt_memclr.o(.text) for __aeabi_memclr
    rsecc.o(i.RSECC_encode) refers to rsecc.o(i.generator_init) for generator_init
    rsecc.o(i.RSECC_encode) refers to rt_memmove_v6.o(.text) for __aeabi_memmove
    rsecc.o(i.RSECC_encode) refers to rsecc.o(.data) for initialized
    rsecc.o(i.RSECC_encode) refers to rsecc.o(.bss) for generatorInitialized
    rsecc.o(i.RSECC_init) refers to rsecc.o(i.RSECC_initLookupTable) for RSECC_initLookupTable
    rsecc.o(i.RSECC_init) refers to rt_memclr.o(.text) for __aeabi_memclr
    rsecc.o(i.RSECC_init) refers to rsecc.o(.bss) for generatorInitialized
    rsecc.o(i.RSECC_init) refers to rsecc.o(.data) for initialized
    rsecc.o(i.RSECC_initLookupTable) refers to rsecc.o(.bss) for alpha
    rsecc.o(i.generator_init) refers to rsecc.o(.bss) for aindex
    split.o(i.Split_eat8) refers to qrspec.o(i.QRspec_lengthIndicator) for QRspec_lengthIndicator
    split.o(i.Split_eat8) refers to split.o(i.Split_identifyMode) for Split_identifyMode
    split.o(i.Split_eat8) refers to qrinput.o(i.QRinput_estimateBitsMode8) for QRinput_estimateBitsMode8
    split.o(i.Split_eat8) refers to qrinput.o(i.QRinput_estimateBitsModeNum) for QRinput_estimateBitsModeNum
    split.o(i.Split_eat8) refers to qrinput.o(i.QRinput_estimateBitsModeAn) for QRinput_estimateBitsModeAn
    split.o(i.Split_eat8) refers to qrinput.o(i.QRinput_append) for QRinput_append
    split.o(i.Split_eat8) refers to qrinput.o(.constdata) for QRinput_anTable
    split.o(i.Split_eatAn) refers to qrspec.o(i.QRspec_lengthIndicator) for QRspec_lengthIndicator
    split.o(i.Split_eatAn) refers to qrinput.o(i.QRinput_estimateBitsModeAn) for QRinput_estimateBitsModeAn
    split.o(i.Split_eatAn) refers to qrinput.o(i.QRinput_estimateBitsModeNum) for QRinput_estimateBitsModeNum
    split.o(i.Split_eatAn) refers to qrinput.o(i.QRinput_estimateBitsMode8) for QRinput_estimateBitsMode8
    split.o(i.Split_eatAn) refers to split.o(i.Split_eat8) for Split_eat8
    split.o(i.Split_eatAn) refers to qrinput.o(i.QRinput_append) for QRinput_append
    split.o(i.Split_eatAn) refers to qrinput.o(.constdata) for QRinput_anTable
    split.o(i.Split_eatKanji) refers to split.o(i.Split_identifyMode) for Split_identifyMode
    split.o(i.Split_eatKanji) refers to qrinput.o(i.QRinput_append) for QRinput_append
    split.o(i.Split_eatNum) refers to qrspec.o(i.QRspec_lengthIndicator) for QRspec_lengthIndicator
    split.o(i.Split_eatNum) refers to split.o(i.Split_identifyMode) for Split_identifyMode
    split.o(i.Split_eatNum) refers to qrinput.o(i.QRinput_estimateBitsModeNum) for QRinput_estimateBitsModeNum
    split.o(i.Split_eatNum) refers to qrinput.o(i.QRinput_estimateBitsMode8) for QRinput_estimateBitsMode8
    split.o(i.Split_eatNum) refers to split.o(i.Split_eat8) for Split_eat8
    split.o(i.Split_eatNum) refers to qrinput.o(i.QRinput_estimateBitsModeAn) for QRinput_estimateBitsModeAn
    split.o(i.Split_eatNum) refers to split.o(i.Split_eatAn) for Split_eatAn
    split.o(i.Split_eatNum) refers to qrinput.o(i.QRinput_append) for QRinput_append
    split.o(i.Split_identifyMode) refers to qrinput.o(.constdata) for QRinput_anTable
    split.o(i.Split_splitString) refers to split.o(i.Split_identifyMode) for Split_identifyMode
    split.o(i.Split_splitString) refers to split.o(i.Split_eatNum) for Split_eatNum
    split.o(i.Split_splitString) refers to split.o(i.Split_eatAn) for Split_eatAn
    split.o(i.Split_splitString) refers to split.o(i.Split_eatKanji) for Split_eatKanji
    split.o(i.Split_splitString) refers to split.o(i.Split_eat8) for Split_eat8
    split.o(i.Split_splitStringToQRinput) refers to rt_errno_addr_intlibspace.o(.text) for __aeabi_errno_addr
    split.o(i.Split_splitStringToQRinput) refers to split.o(i.dupAndToUpper) for dupAndToUpper
    split.o(i.Split_splitStringToQRinput) refers to split.o(i.Split_splitString) for Split_splitString
    split.o(i.Split_splitStringToQRinput) refers to h1_free.o(.text) for free
    split.o(i.dupAndToUpper) refers to split.o(i.strdup) for strdup
    split.o(i.dupAndToUpper) refers to split.o(i.Split_identifyMode) for Split_identifyMode
    split.o(i.strdup) refers to strlen.o(.text) for strlen
    split.o(i.strdup) refers to h1_alloc.o(.text) for malloc
    split.o(i.strdup) refers to memcpy.o(.text) for memcpy
    rt_errno_addr.o(.text) refers to rt_errno_addr.o(.bss) for __aeabi_errno_addr_data
    rt_errno_addr_intlibspace.o(.text) refers to libspace.o(.bss) for __libspace_start
    malloc.o(.text) refers (Special) to hguard.o(.text) for __heap$guard
    malloc.o(.text) refers (Special) to init_alloc.o(.text) for _init_alloc
    malloc.o(.text) refers to rt_heap_descriptor_intlibspace.o(.text) for __rt_heap_descriptor
    malloc.o(.text) refers to heapstubs.o(.text) for __Heap_Alloc
    free.o(.text) refers (Special) to hguard.o(.text) for __heap$guard
    free.o(.text) refers to rt_heap_descriptor_intlibspace.o(.text) for __rt_heap_descriptor
    free.o(.text) refers to heapstubs.o(.text) for __Heap_Free
    realloc.o(.text) refers (Special) to hguard.o(.text) for __heap$guard
    realloc.o(.text) refers to rt_heap_descriptor_intlibspace.o(.text) for __rt_heap_descriptor
    realloc.o(.text) refers to heapstubs.o(.text) for __Heap_Realloc
    realloc.o(.text) refers to h1_free.o(.text) for free
    realloc.o(.text) refers to h1_alloc.o(.text) for malloc
    calloc.o(.text) refers to h1_alloc.o(.text) for malloc
    calloc.o(.text) refers to rt_memclr.o(.text) for __aeabi_memclr
    h1_alloc.o(.text) refers (Special) to h1_init.o(.text) for __Heap_Initialize
    h1_alloc.o(.text) refers to rt_heap_descriptor_intlibspace.o(.text) for __rt_heap_descriptor
    h1_alloc.o(.text) refers to init_alloc.o(.text) for __Heap_Full
    h1_free.o(.text) refers to rt_heap_descriptor_intlibspace.o(.text) for __rt_heap_descriptor
    h1_realloc.o(.text) refers to rt_heap_descriptor_intlibspace.o(.text) for __rt_heap_descriptor
    h1_realloc.o(.text) refers to h1_free.o(.text) for free
    h1_realloc.o(.text) refers to h1_alloc.o(.text) for malloc
    h1_realloc.o(.text) refers to rt_memcpy_w.o(.text) for __aeabi_memcpy4
    h1_alloc_mt.o(.text) refers (Special) to h1_init.o(.text) for __Heap_Initialize
    h1_alloc_mt.o(.text) refers to init_alloc.o(.text) for __Heap_Full
    h1_alloc_mt.o(.text) refers to rt_heap_descriptor_intlibspace.o(.text) for __rt_heap_descriptor
    h1_free_mt.o(.text) refers to rt_heap_descriptor_intlibspace.o(.text) for __rt_heap_descriptor
    h1_realloc_mt.o(.text) refers to rt_heap_descriptor_intlibspace.o(.text) for __rt_heap_descriptor
    h1_realloc_mt.o(.text) refers to h1_free_mt.o(.text) for _free_internal
    h1_realloc_mt.o(.text) refers to h1_free.o(.text) for free
    h1_realloc_mt.o(.text) refers to h1_alloc.o(.text) for malloc
    h1_realloc_mt.o(.text) refers to h1_alloc_mt.o(.text) for _malloc_internal
    h1_realloc_mt.o(.text) refers to rt_memcpy_w.o(.text) for __aeabi_memcpy4
    heap2.o(i._FDIterate) refers to heap2.o(.conststring) for .conststring
    heap2.o(i.___Heap_ProvideMemory$realtime) refers to fdtree.o(i._FDTree_Delete) for _FDTree_Delete
    heap2.o(i.___Heap_ProvideMemory$realtime) refers to fdtree.o(i._FDTree_Insert) for _FDTree_Insert
    heap2.o(i.___Heap_Stats$realtime) refers to heap2.o(i._Heap2_StatsIterate) for _Heap2_StatsIterate
    heap2.o(i.___Heap_Valid$realtime) refers to heap2.o(i._FDIterate) for _FDIterate
    heap2.o(i.___Heap_Valid$realtime) refers to heap2.o(.conststring) for .conststring
    heap2.o(i._free$realtime) refers to rt_heap_descriptor_intlibspace.o(.text) for __rt_heap_descriptor
    heap2.o(i._free$realtime) refers to fdtree.o(i._FDTree_Delete) for _FDTree_Delete
    heap2.o(i._free$realtime) refers to fdtree.o(i._FDTree_Insert) for _FDTree_Insert
    heap2.o(i._malloc$realtime) refers to rt_heap_descriptor_intlibspace.o(.text) for __rt_heap_descriptor
    heap2.o(i._malloc$realtime) refers to fdtree.o(i._FDTree_FindFirst) for _FDTree_FindFirst
    heap2.o(i._malloc$realtime) refers to init_alloc.o(.text) for __Heap_Full
    heap2.o(i._malloc$realtime) refers to fdtree.o(i._FDTree_RemoveNode) for _FDTree_RemoveNode
    heap2.o(i._malloc$realtime) refers to fdtree.o(i._FDTree_Insert) for _FDTree_Insert
    heap2.o(i._posix_memalign$realtime) refers to rt_heap_descriptor_intlibspace.o(.text) for __rt_heap_descriptor
    heap2.o(i._posix_memalign$realtime) refers to fdtree.o(i._FDTree_FindFirst) for _FDTree_FindFirst
    heap2.o(i._posix_memalign$realtime) refers to init_alloc.o(.text) for __Heap_Full
    heap2.o(i._posix_memalign$realtime) refers to fdtree.o(i._FDTree_RemoveNode) for _FDTree_RemoveNode
    heap2.o(i._posix_memalign$realtime) refers to fdtree.o(i._FDTree_Insert) for _FDTree_Insert
    heap2.o(i._realloc$realtime) refers to rt_heap_descriptor_intlibspace.o(.text) for __rt_heap_descriptor
    heap2.o(i._realloc$realtime) refers to fdtree.o(i._FDTree_Insert) for _FDTree_Insert
    heap2.o(i._realloc$realtime) refers to h1_free.o(.text) for free
    heap2.o(i._realloc$realtime) refers to h1_alloc.o(.text) for malloc
    heap2.o(i._realloc$realtime) refers to fdtree.o(i._FDTree_Delete) for _FDTree_Delete
    heap2.o(i._realloc$realtime) refers to rt_memcpy_w.o(.text) for __aeabi_memcpy4
    heap2mt.o(i._FDIterate) refers to heap2mt.o(.conststring) for .conststring
    heap2mt.o(i.___Heap_Initialize$realtime$concurrent) refers to mutex_dummy.o(.text) for _mutex_initialize
    heap2mt.o(i.___Heap_ProvideMemory$realtime$concurrent) refers to fdtree.o(i._FDTree_Delete) for _FDTree_Delete
    heap2mt.o(i.___Heap_ProvideMemory$realtime$concurrent) refers to fdtree.o(i._FDTree_Insert) for _FDTree_Insert
    heap2mt.o(i.___Heap_Stats$realtime$concurrent) refers to heap2mt.o(i._Heap2_StatsIterate) for _Heap2_StatsIterate
    heap2mt.o(i.___Heap_Valid$realtime$concurrent) refers to heap2mt.o(i._FDIterate) for _FDIterate
    heap2mt.o(i.___Heap_Valid$realtime$concurrent) refers to heap2mt.o(.conststring) for .conststring
    heap2mt.o(i._free$realtime$concurrent) refers to rt_heap_descriptor_intlibspace.o(.text) for __rt_heap_descriptor
    heap2mt.o(i._free$realtime$concurrent) refers to fdtree.o(i._FDTree_Delete) for _FDTree_Delete
    heap2mt.o(i._free$realtime$concurrent) refers to fdtree.o(i._FDTree_Insert) for _FDTree_Insert
    heap2mt.o(i._malloc$realtime$concurrent) refers to rt_heap_descriptor_intlibspace.o(.text) for __rt_heap_descriptor
    heap2mt.o(i._malloc$realtime$concurrent) refers to fdtree.o(i._FDTree_FindFirst) for _FDTree_FindFirst
    heap2mt.o(i._malloc$realtime$concurrent) refers to init_alloc.o(.text) for __Heap_Full
    heap2mt.o(i._malloc$realtime$concurrent) refers to fdtree.o(i._FDTree_RemoveNode) for _FDTree_RemoveNode
    heap2mt.o(i._malloc$realtime$concurrent) refers to fdtree.o(i._FDTree_Insert) for _FDTree_Insert
    heap2mt.o(i._posix_memalign$realtime$concurrent) refers to rt_heap_descriptor_intlibspace.o(.text) for __rt_heap_descriptor
    heap2mt.o(i._posix_memalign$realtime$concurrent) refers to fdtree.o(i._FDTree_FindFirst) for _FDTree_FindFirst
    heap2mt.o(i._posix_memalign$realtime$concurrent) refers to init_alloc.o(.text) for __Heap_Full
    heap2mt.o(i._posix_memalign$realtime$concurrent) refers to fdtree.o(i._FDTree_RemoveNode) for _FDTree_RemoveNode
    heap2mt.o(i._posix_memalign$realtime$concurrent) refers to fdtree.o(i._FDTree_Insert) for _FDTree_Insert
    heap2mt.o(i._realloc$realtime$concurrent) refers to rt_heap_descriptor_intlibspace.o(.text) for __rt_heap_descriptor
    heap2mt.o(i._realloc$realtime$concurrent) refers to fdtree.o(i._FDTree_Insert) for _FDTree_Insert
    heap2mt.o(i._realloc$realtime$concurrent) refers to h1_free.o(.text) for free
    heap2mt.o(i._realloc$realtime$concurrent) refers to h1_alloc.o(.text) for malloc
    heap2mt.o(i._realloc$realtime$concurrent) refers to fdtree.o(i._FDTree_Delete) for _FDTree_Delete
    heap2mt.o(i._realloc$realtime$concurrent) refers to rt_memcpy_w.o(.text) for __aeabi_memcpy4
    rt_memcpy_v6.o(.text) refers to rt_memcpy_w.o(.text) for __aeabi_memcpy4
    rt_memmove_v6.o(.text) refers to rt_memcpy_v6.o(.text) for __aeabi_memcpy
    rt_memmove_v6.o(.text) refers to rt_memmove_w.o(.text) for __memmove_aligned
    memcpy.o(.text) refers to rt_memcpy_v6.o(.text) for __aeabi_memcpy
    aeabi_memset.o(.text) refers to rt_memclr.o(.text) for _memset
    rt_memclr.o(.text) refers to rt_memclr_w.o(.text) for _memset_w
    __main.o(!!!main) refers to __rtentry.o(.ARM.Collect$$rtentry$$00000000) for __rt_entry
    libspace.o(.text) refers to libspace.o(.bss) for __libspace_start
    __rtentry.o(.ARM.Collect$$rtentry$$00000000) refers (Special) to __rtentry2.o(.ARM.Collect$$rtentry$$0000000A) for __rt_entry_li
    __rtentry.o(.ARM.Collect$$rtentry$$00000000) refers (Special) to __rtentry2.o(.ARM.Collect$$rtentry$$0000000D) for __rt_entry_main
    __rtentry.o(.ARM.Collect$$rtentry$$00000000) refers (Special) to __rtentry2.o(.ARM.Collect$$rtentry$$0000000C) for __rt_entry_postli_1
    __rtentry.o(.ARM.Collect$$rtentry$$00000000) refers (Special) to __rtentry2.o(.ARM.Collect$$rtentry$$00000009) for __rt_entry_postsh_1
    __rtentry.o(.ARM.Collect$$rtentry$$00000000) refers (Special) to __rtentry2.o(.ARM.Collect$$rtentry$$00000002) for __rt_entry_presh_1
    __rtentry.o(.ARM.Collect$$rtentry$$00000000) refers (Special) to __rtentry4.o(.ARM.Collect$$rtentry$$00000004) for __rt_entry_sh
    rt_heap_descriptor.o(.text) refers to rt_heap_descriptor.o(.bss) for __rt_heap_descriptor_data
    rt_heap_descriptor_intlibspace.o(.text) refers to libspace.o(.bss) for __libspace_start
    init_alloc.o(.text) refers (Special) to hguard.o(.text) for __heap$guard
    init_alloc.o(.text) refers (Special) to libinit2.o(.ARM.Collect$$libinit$$00000005) for __rt_lib_init_heap_2
    init_alloc.o(.text) refers (Special) to maybetermalloc1.o(.emb_text) for _maybe_terminate_alloc
    init_alloc.o(.text) refers to h1_extend.o(.text) for __Heap_ProvideMemory
    init_alloc.o(.text) refers to defsig_rtmem_outer.o(.text) for __rt_SIGRTMEM
    init_alloc.o(.text) refers to rt_heap_descriptor_intlibspace.o(.text) for __rt_heap_descriptor
    init_alloc.o(.text) refers to h1_init.o(.text) for __Heap_Initialize
    h1_init_mt.o(.text) refers to mutex_dummy.o(.text) for _mutex_initialize
    rt_memmove_w.o(.text) refers to rt_memcpy_w.o(.text) for __aeabi_memcpy4
    _get_argv.o(.text) refers (Special) to hrguard.o(.text) for __heap_region$guard
    _get_argv.o(.text) refers to h1_alloc.o(.text) for malloc
    _get_argv.o(.text) refers to defsig_rtmem_outer.o(.text) for __rt_SIGRTMEM
    _get_argv.o(.text) refers to sys_command.o(.text) for _sys_command_string
    libinit2.o(.ARM.Collect$$libinit$$00000005) refers (Weak) to init_alloc.o(.text) for _init_alloc
    libinit2.o(.ARM.Collect$$libinit$$00000010) refers to libinit2.o(.ARM.Collect$$libinit$$0000000F) for .ARM.Collect$$libinit$$0000000F
    libinit2.o(.ARM.Collect$$libinit$$00000012) refers to libinit2.o(.ARM.Collect$$libinit$$0000000F) for .ARM.Collect$$libinit$$0000000F
    libinit2.o(.ARM.Collect$$libinit$$00000014) refers to libinit2.o(.ARM.Collect$$libinit$$0000000F) for .ARM.Collect$$libinit$$0000000F
    libinit2.o(.ARM.Collect$$libinit$$00000016) refers to libinit2.o(.ARM.Collect$$libinit$$0000000F) for .ARM.Collect$$libinit$$0000000F
    libinit2.o(.ARM.Collect$$libinit$$00000018) refers to libinit2.o(.ARM.Collect$$libinit$$0000000F) for .ARM.Collect$$libinit$$0000000F
    libinit2.o(.ARM.Collect$$libinit$$00000026) refers to argv_veneer.o(.emb_text) for __ARM_argv_veneer
    libinit2.o(.ARM.Collect$$libinit$$00000027) refers to argv_veneer.o(.emb_text) for __ARM_argv_veneer
    sys_command.o(.text) refers (Special) to use_no_semi.o(.text) for __I$use$semihosting
    sys_command.o(.text) refers (Special) to indicate_semi.o(.text) for __semihosting_library_function
    __rtentry2.o(.ARM.Collect$$rtentry$$00000008) refers to boardinit2.o(.text) for _platform_post_stackheap_init
    __rtentry2.o(.ARM.Collect$$rtentry$$0000000A) refers to libinit.o(.ARM.Collect$$libinit$$00000000) for __rt_lib_init
    __rtentry2.o(.ARM.Collect$$rtentry$$0000000B) refers to boardinit3.o(.text) for _platform_post_lib_init
    __rtentry2.o(.ARM.Collect$$rtentry$$0000000D) refers to main.o(i.main) for main
    __rtentry2.o(.ARM.Collect$$rtentry$$0000000D) refers to exit.o(.text) for exit
    __rtentry2.o(.ARM.exidx) refers to __rtentry2.o(.ARM.Collect$$rtentry$$00000001) for .ARM.Collect$$rtentry$$00000001
    __rtentry2.o(.ARM.exidx) refers to __rtentry2.o(.ARM.Collect$$rtentry$$00000008) for .ARM.Collect$$rtentry$$00000008
    __rtentry2.o(.ARM.exidx) refers to __rtentry2.o(.ARM.Collect$$rtentry$$0000000A) for .ARM.Collect$$rtentry$$0000000A
    __rtentry2.o(.ARM.exidx) refers to __rtentry2.o(.ARM.Collect$$rtentry$$0000000B) for .ARM.Collect$$rtentry$$0000000B
    __rtentry2.o(.ARM.exidx) refers to __rtentry2.o(.ARM.Collect$$rtentry$$0000000D) for .ARM.Collect$$rtentry$$0000000D
    __rtentry4.o(.ARM.Collect$$rtentry$$00000004) refers to sys_stackheap_outer.o(.text) for __user_setup_stackheap
    __rtentry4.o(.ARM.exidx) refers to __rtentry4.o(.ARM.Collect$$rtentry$$00000004) for .ARM.Collect$$rtentry$$00000004
    maybetermalloc2.o(.emb_text) refers (Special) to term_alloc.o(.text) for _terminate_alloc
    h1_extend.o(.text) refers to h1_free.o(.text) for free
    h1_extend_mt.o(.text) refers to h1_free_mt.o(.text) for _free_internal
    defsig_rtmem_outer.o(.text) refers to defsig_rtmem_inner.o(.text) for __rt_SIGRTMEM_inner
    defsig_rtmem_outer.o(.text) refers to defsig_exit.o(.text) for __sig_exit
    defsig_rtmem_formal.o(.text) refers to rt_raise.o(.text) for __rt_raise
    heapauxa.o(.text) refers to heapauxa.o(.data) for .data
    argv_veneer.o(.emb_text) refers to no_argv.o(.text) for __ARM_get_argv
    sys_stackheap_outer.o(.text) refers to libspace.o(.text) for __user_perproc_libspace
    sys_stackheap_outer.o(.text) refers to startup_stm32f10x_md.o(.text) for __user_initial_stackheap
    rt_raise.o(.text) refers to __raise.o(.text) for __raise
    rt_raise.o(.text) refers to sys_exit.o(.text) for _sys_exit
    term_alloc.o(.text) refers (Special) to libshutdown2.o(.ARM.Collect$$libshutdown$$00000010) for __rt_lib_shutdown_heap_2
    term_alloc.o(.text) refers to rt_heap_descriptor_intlibspace.o(.text) for __rt_heap_descriptor
    term_alloc.o(.text) refers to h1_final.o(.text) for __Heap_Finalize
    exit.o(.text) refers to rtexit.o(.ARM.Collect$$rtexit$$00000000) for __rt_exit
    defsig_exit.o(.text) refers to sys_exit.o(.text) for _sys_exit
    defsig_rtmem_inner.o(.text) refers to defsig_general.o(.text) for __default_signal_display
    _get_argv_nomalloc.o(.text) refers (Special) to hrguard.o(.text) for __heap_region$guard
    _get_argv_nomalloc.o(.text) refers to defsig_rtmem_outer.o(.text) for __rt_SIGRTMEM
    _get_argv_nomalloc.o(.text) refers to sys_command.o(.text) for _sys_command_string
    libinit.o(.ARM.Collect$$libinit$$00000000) refers (Special) to libinit2.o(.ARM.Collect$$libinit$$0000002E) for __rt_lib_init_alloca_1
    libinit.o(.ARM.Collect$$libinit$$00000000) refers (Special) to libinit2.o(.ARM.Collect$$libinit$$0000002C) for __rt_lib_init_argv_1
    libinit.o(.ARM.Collect$$libinit$$00000000) refers (Special) to libinit2.o(.ARM.Collect$$libinit$$0000001B) for __rt_lib_init_atexit_1
    libinit.o(.ARM.Collect$$libinit$$00000000) refers (Special) to libinit2.o(.ARM.Collect$$libinit$$00000021) for __rt_lib_init_clock_1
    libinit.o(.ARM.Collect$$libinit$$00000000) refers (Special) to libinit2.o(.ARM.Collect$$libinit$$00000032) for __rt_lib_init_cpp_1
    libinit.o(.ARM.Collect$$libinit$$00000000) refers (Special) to libinit2.o(.ARM.Collect$$libinit$$00000030) for __rt_lib_init_exceptions_1
    libinit.o(.ARM.Collect$$libinit$$00000000) refers (Special) to libinit2.o(.ARM.Collect$$libinit$$00000002) for __rt_lib_init_fp_1
    libinit.o(.ARM.Collect$$libinit$$00000000) refers (Special) to libinit2.o(.ARM.Collect$$libinit$$0000001F) for __rt_lib_init_fp_trap_1
    libinit.o(.ARM.Collect$$libinit$$00000000) refers (Special) to libinit2.o(.ARM.Collect$$libinit$$00000023) for __rt_lib_init_getenv_1
    libinit.o(.ARM.Collect$$libinit$$00000000) refers (Special) to libinit2.o(.ARM.Collect$$libinit$$0000000A) for __rt_lib_init_heap_1
    libinit.o(.ARM.Collect$$libinit$$00000000) refers (Special) to libinit2.o(.ARM.Collect$$libinit$$00000011) for __rt_lib_init_lc_collate_1
    libinit.o(.ARM.Collect$$libinit$$00000000) refers (Special) to libinit2.o(.ARM.Collect$$libinit$$00000013) for __rt_lib_init_lc_ctype_1
    libinit.o(.ARM.Collect$$libinit$$00000000) refers (Special) to libinit2.o(.ARM.Collect$$libinit$$00000015) for __rt_lib_init_lc_monetary_1
    libinit.o(.ARM.Collect$$libinit$$00000000) refers (Special) to libinit2.o(.ARM.Collect$$libinit$$00000017) for __rt_lib_init_lc_numeric_1
    libinit.o(.ARM.Collect$$libinit$$00000000) refers (Special) to libinit2.o(.ARM.Collect$$libinit$$00000019) for __rt_lib_init_lc_time_1
    libinit.o(.ARM.Collect$$libinit$$00000000) refers (Special) to libinit2.o(.ARM.Collect$$libinit$$00000004) for __rt_lib_init_preinit_1
    libinit.o(.ARM.Collect$$libinit$$00000000) refers (Special) to libinit2.o(.ARM.Collect$$libinit$$0000000E) for __rt_lib_init_rand_1
    libinit.o(.ARM.Collect$$libinit$$00000000) refers (Special) to libinit2.o(.ARM.Collect$$libinit$$00000033) for __rt_lib_init_return
    libinit.o(.ARM.Collect$$libinit$$00000000) refers (Special) to libinit2.o(.ARM.Collect$$libinit$$0000001D) for __rt_lib_init_signal_1
    libinit.o(.ARM.Collect$$libinit$$00000000) refers (Special) to libinit2.o(.ARM.Collect$$libinit$$00000025) for __rt_lib_init_stdio_1
    libinit.o(.ARM.Collect$$libinit$$00000000) refers (Special) to libinit2.o(.ARM.Collect$$libinit$$0000000C) for __rt_lib_init_user_alloc_1
    sys_exit.o(.text) refers (Special) to use_no_semi.o(.text) for __I$use$semihosting
    sys_exit.o(.text) refers (Special) to indicate_semi.o(.text) for __semihosting_library_function
    rtexit.o(.ARM.Collect$$rtexit$$00000000) refers (Special) to rtexit2.o(.ARM.Collect$$rtexit$$00000004) for __rt_exit_exit
    rtexit.o(.ARM.Collect$$rtexit$$00000000) refers (Special) to rtexit2.o(.ARM.Collect$$rtexit$$00000003) for __rt_exit_ls
    rtexit.o(.ARM.Collect$$rtexit$$00000000) refers (Special) to rtexit2.o(.ARM.Collect$$rtexit$$00000002) for __rt_exit_prels_1
    rtexit.o(.ARM.exidx) refers (Special) to rtexit2.o(.ARM.Collect$$rtexit$$00000004) for __rt_exit_exit
    rtexit.o(.ARM.exidx) refers (Special) to rtexit2.o(.ARM.Collect$$rtexit$$00000003) for __rt_exit_ls
    rtexit.o(.ARM.exidx) refers (Special) to rtexit2.o(.ARM.Collect$$rtexit$$00000002) for __rt_exit_prels_1
    rtexit.o(.ARM.exidx) refers to rtexit.o(.ARM.Collect$$rtexit$$00000000) for .ARM.Collect$$rtexit$$00000000
    __raise.o(.text) refers to defsig.o(CL$$defsig) for __default_signal_handler
    defsig_general.o(.text) refers to sys_wrch.o(.text) for _ttywrch
    libshutdown2.o(.ARM.Collect$$libshutdown$$0000000F) refers (Weak) to term_alloc.o(.text) for _terminate_alloc
    sys_wrch.o(.text) refers (Special) to use_no_semi.o(.text) for __I$use$semihosting
    sys_wrch.o(.text) refers (Special) to indicate_semi.o(.text) for __semihosting_library_function
    rtexit2.o(.ARM.Collect$$rtexit$$00000003) refers to libshutdown.o(.ARM.Collect$$libshutdown$$00000000) for __rt_lib_shutdown
    rtexit2.o(.ARM.Collect$$rtexit$$00000004) refers to sys_exit.o(.text) for _sys_exit
    rtexit2.o(.ARM.exidx) refers to rtexit2.o(.ARM.Collect$$rtexit$$00000001) for .ARM.Collect$$rtexit$$00000001
    rtexit2.o(.ARM.exidx) refers to rtexit2.o(.ARM.Collect$$rtexit$$00000003) for .ARM.Collect$$rtexit$$00000003
    rtexit2.o(.ARM.exidx) refers to rtexit2.o(.ARM.Collect$$rtexit$$00000004) for .ARM.Collect$$rtexit$$00000004
    defsig.o(CL$$defsig) refers to defsig_rtmem_inner.o(.text) for __rt_SIGRTMEM_inner
    defsig_abrt_inner.o(.text) refers to defsig_general.o(.text) for __default_signal_display
    defsig_fpe_inner.o(.text) refers to defsig_general.o(.text) for __default_signal_display
    defsig_rtred_inner.o(.text) refers to defsig_general.o(.text) for __default_signal_display
    defsig_stak_inner.o(.text) refers to defsig_general.o(.text) for __default_signal_display
    defsig_pvfn_inner.o(.text) refers to defsig_general.o(.text) for __default_signal_display
    defsig_cppl_inner.o(.text) refers to defsig_general.o(.text) for __default_signal_display
    defsig_segv_inner.o(.text) refers to defsig_general.o(.text) for __default_signal_display
    defsig_other.o(.text) refers to defsig_general.o(.text) for __default_signal_display
    libshutdown.o(.ARM.Collect$$libshutdown$$00000000) refers (Special) to libshutdown2.o(.ARM.Collect$$libshutdown$$00000004) for __rt_lib_shutdown_cpp_1
    libshutdown.o(.ARM.Collect$$libshutdown$$00000000) refers (Special) to libshutdown2.o(.ARM.Collect$$libshutdown$$00000002) for __rt_lib_shutdown_fini_1
    libshutdown.o(.ARM.Collect$$libshutdown$$00000000) refers (Special) to libshutdown2.o(.ARM.Collect$$libshutdown$$00000009) for __rt_lib_shutdown_fp_trap_1
    libshutdown.o(.ARM.Collect$$libshutdown$$00000000) refers (Special) to libshutdown2.o(.ARM.Collect$$libshutdown$$00000011) for __rt_lib_shutdown_heap_1
    libshutdown.o(.ARM.Collect$$libshutdown$$00000000) refers (Special) to libshutdown2.o(.ARM.Collect$$libshutdown$$00000012) for __rt_lib_shutdown_return
    libshutdown.o(.ARM.Collect$$libshutdown$$00000000) refers (Special) to libshutdown2.o(.ARM.Collect$$libshutdown$$0000000C) for __rt_lib_shutdown_signal_1
    libshutdown.o(.ARM.Collect$$libshutdown$$00000000) refers (Special) to libshutdown2.o(.ARM.Collect$$libshutdown$$00000006) for __rt_lib_shutdown_stdio_1
    libshutdown.o(.ARM.Collect$$libshutdown$$00000000) refers (Special) to libshutdown2.o(.ARM.Collect$$libshutdown$$0000000E) for __rt_lib_shutdown_user_alloc_1


==============================================================================

Removing Unused input sections from the image.

    Removing core_cm3.o(.emb_text), (32 bytes).
    Removing system_stm32f10x.o(i.SystemCoreClockUpdate), (164 bytes).
    Removing misc.o(i.NVIC_PriorityGroupConfig), (20 bytes).
    Removing misc.o(i.NVIC_SetVectorTable), (20 bytes).
    Removing misc.o(i.NVIC_SystemLPConfig), (32 bytes).
    Removing stm32f10x_adc.o(i.ADC_AnalogWatchdogCmd), (20 bytes).
    Removing stm32f10x_adc.o(i.ADC_AnalogWatchdogSingleChannelConfig), (16 bytes).
    Removing stm32f10x_adc.o(i.ADC_AnalogWatchdogThresholdsConfig), (6 bytes).
    Removing stm32f10x_adc.o(i.ADC_AutoInjectedConvCmd), (22 bytes).
    Removing stm32f10x_adc.o(i.ADC_ClearFlag), (6 bytes).
    Removing stm32f10x_adc.o(i.ADC_ClearITPendingBit), (10 bytes).
    Removing stm32f10x_adc.o(i.ADC_DMACmd), (22 bytes).
    Removing stm32f10x_adc.o(i.ADC_DiscModeChannelCountConfig), (24 bytes).
    Removing stm32f10x_adc.o(i.ADC_DiscModeCmd), (22 bytes).
    Removing stm32f10x_adc.o(i.ADC_ExternalTrigConvCmd), (22 bytes).
    Removing stm32f10x_adc.o(i.ADC_ExternalTrigInjectedConvCmd), (22 bytes).
    Removing stm32f10x_adc.o(i.ADC_ExternalTrigInjectedConvConfig), (16 bytes).
    Removing stm32f10x_adc.o(i.ADC_GetDualModeConversionValue), (12 bytes).
    Removing stm32f10x_adc.o(i.ADC_GetITStatus), (36 bytes).
    Removing stm32f10x_adc.o(i.ADC_GetInjectedConversionValue), (28 bytes).
    Removing stm32f10x_adc.o(i.ADC_GetSoftwareStartConvStatus), (20 bytes).
    Removing stm32f10x_adc.o(i.ADC_GetSoftwareStartInjectedConvCmdStatus), (20 bytes).
    Removing stm32f10x_adc.o(i.ADC_ITConfig), (24 bytes).
    Removing stm32f10x_adc.o(i.ADC_InjectedChannelConfig), (130 bytes).
    Removing stm32f10x_adc.o(i.ADC_InjectedDiscModeCmd), (22 bytes).
    Removing stm32f10x_adc.o(i.ADC_InjectedSequencerLengthConfig), (24 bytes).
    Removing stm32f10x_adc.o(i.ADC_SetInjectedOffset), (20 bytes).
    Removing stm32f10x_adc.o(i.ADC_SoftwareStartInjectedConvCmd), (22 bytes).
    Removing stm32f10x_adc.o(i.ADC_StructInit), (18 bytes).
    Removing stm32f10x_adc.o(i.ADC_TempSensorVrefintCmd), (36 bytes).
    Removing stm32f10x_bkp.o(i.BKP_ClearFlag), (20 bytes).
    Removing stm32f10x_bkp.o(i.BKP_ClearITPendingBit), (20 bytes).
    Removing stm32f10x_bkp.o(i.BKP_DeInit), (16 bytes).
    Removing stm32f10x_bkp.o(i.BKP_GetFlagStatus), (12 bytes).
    Removing stm32f10x_bkp.o(i.BKP_GetITStatus), (12 bytes).
    Removing stm32f10x_bkp.o(i.BKP_ITConfig), (12 bytes).
    Removing stm32f10x_bkp.o(i.BKP_RTCOutputConfig), (28 bytes).
    Removing stm32f10x_bkp.o(i.BKP_ReadBackupRegister), (28 bytes).
    Removing stm32f10x_bkp.o(i.BKP_SetRTCCalibrationValue), (28 bytes).
    Removing stm32f10x_bkp.o(i.BKP_TamperPinCmd), (12 bytes).
    Removing stm32f10x_bkp.o(i.BKP_TamperPinLevelConfig), (12 bytes).
    Removing stm32f10x_bkp.o(i.BKP_WriteBackupRegister), (28 bytes).
    Removing stm32f10x_can.o(i.CAN_CancelTransmit), (48 bytes).
    Removing stm32f10x_can.o(i.CAN_ClearFlag), (56 bytes).
    Removing stm32f10x_can.o(i.CAN_ClearITPendingBit), (168 bytes).
    Removing stm32f10x_can.o(i.CAN_DBGFreeze), (22 bytes).
    Removing stm32f10x_can.o(i.CAN_DeInit), (56 bytes).
    Removing stm32f10x_can.o(i.CAN_FIFORelease), (22 bytes).
    Removing stm32f10x_can.o(i.CAN_FilterInit), (264 bytes).
    Removing stm32f10x_can.o(i.CAN_GetFlagStatus), (120 bytes).
    Removing stm32f10x_can.o(i.CAN_GetITStatus), (288 bytes).
    Removing stm32f10x_can.o(i.CAN_GetLSBTransmitErrorCounter), (12 bytes).
    Removing stm32f10x_can.o(i.CAN_GetLastErrorCode), (12 bytes).
    Removing stm32f10x_can.o(i.CAN_GetReceiveErrorCounter), (10 bytes).
    Removing stm32f10x_can.o(i.CAN_ITConfig), (18 bytes).
    Removing stm32f10x_can.o(i.CAN_Init), (276 bytes).
    Removing stm32f10x_can.o(i.CAN_MessagePending), (30 bytes).
    Removing stm32f10x_can.o(i.CAN_OperatingModeRequest), (162 bytes).
    Removing stm32f10x_can.o(i.CAN_Receive), (240 bytes).
    Removing stm32f10x_can.o(i.CAN_SlaveStartBank), (52 bytes).
    Removing stm32f10x_can.o(i.CAN_Sleep), (30 bytes).
    Removing stm32f10x_can.o(i.CAN_StructInit), (32 bytes).
    Removing stm32f10x_can.o(i.CAN_TTComModeCmd), (118 bytes).
    Removing stm32f10x_can.o(i.CAN_Transmit), (294 bytes).
    Removing stm32f10x_can.o(i.CAN_TransmitStatus), (160 bytes).
    Removing stm32f10x_can.o(i.CAN_WakeUp), (48 bytes).
    Removing stm32f10x_can.o(i.CheckITStatus), (18 bytes).
    Removing stm32f10x_cec.o(i.CEC_ClearFlag), (36 bytes).
    Removing stm32f10x_cec.o(i.CEC_ClearITPendingBit), (36 bytes).
    Removing stm32f10x_cec.o(i.CEC_Cmd), (32 bytes).
    Removing stm32f10x_cec.o(i.CEC_DeInit), (22 bytes).
    Removing stm32f10x_cec.o(i.CEC_EndOfMessageCmd), (12 bytes).
    Removing stm32f10x_cec.o(i.CEC_GetFlagStatus), (48 bytes).
    Removing stm32f10x_cec.o(i.CEC_GetITStatus), (40 bytes).
    Removing stm32f10x_cec.o(i.CEC_ITConfig), (12 bytes).
    Removing stm32f10x_cec.o(i.CEC_Init), (32 bytes).
    Removing stm32f10x_cec.o(i.CEC_OwnAddressConfig), (12 bytes).
    Removing stm32f10x_cec.o(i.CEC_ReceiveDataByte), (12 bytes).
    Removing stm32f10x_cec.o(i.CEC_SendDataByte), (12 bytes).
    Removing stm32f10x_cec.o(i.CEC_SetPrescaler), (12 bytes).
    Removing stm32f10x_cec.o(i.CEC_StartOfMessage), (12 bytes).
    Removing stm32f10x_crc.o(i.CRC_CalcBlockCRC), (36 bytes).
    Removing stm32f10x_crc.o(i.CRC_CalcCRC), (16 bytes).
    Removing stm32f10x_crc.o(i.CRC_GetCRC), (12 bytes).
    Removing stm32f10x_crc.o(i.CRC_GetIDRegister), (12 bytes).
    Removing stm32f10x_crc.o(i.CRC_ResetDR), (12 bytes).
    Removing stm32f10x_crc.o(i.CRC_SetIDRegister), (12 bytes).
    Removing stm32f10x_dac.o(i.DAC_Cmd), (40 bytes).
    Removing stm32f10x_dac.o(i.DAC_DMACmd), (44 bytes).
    Removing stm32f10x_dac.o(i.DAC_DeInit), (22 bytes).
    Removing stm32f10x_dac.o(i.DAC_DualSoftwareTriggerCmd), (36 bytes).
    Removing stm32f10x_dac.o(i.DAC_GetDataOutputValue), (36 bytes).
    Removing stm32f10x_dac.o(i.DAC_Init), (52 bytes).
    Removing stm32f10x_dac.o(i.DAC_SetChannel1Data), (32 bytes).
    Removing stm32f10x_dac.o(i.DAC_SetChannel2Data), (32 bytes).
    Removing stm32f10x_dac.o(i.DAC_SetDualChannelData), (36 bytes).
    Removing stm32f10x_dac.o(i.DAC_SoftwareTriggerCmd), (44 bytes).
    Removing stm32f10x_dac.o(i.DAC_StructInit), (12 bytes).
    Removing stm32f10x_dac.o(i.DAC_WaveGenerationCmd), (40 bytes).
    Removing stm32f10x_dbgmcu.o(i.DBGMCU_Config), (32 bytes).
    Removing stm32f10x_dbgmcu.o(i.DBGMCU_GetDEVID), (16 bytes).
    Removing stm32f10x_dbgmcu.o(i.DBGMCU_GetREVID), (12 bytes).
    Removing stm32f10x_dma.o(i.DMA_GetCurrDataCounter), (8 bytes).
    Removing stm32f10x_dma.o(i.DMA_GetFlagStatus), (44 bytes).
    Removing stm32f10x_dma.o(i.DMA_GetITStatus), (44 bytes).
    Removing stm32f10x_dma.o(i.DMA_StructInit), (26 bytes).
    Removing stm32f10x_exti.o(i.EXTI_ClearFlag), (12 bytes).
    Removing stm32f10x_exti.o(i.EXTI_ClearITPendingBit), (12 bytes).
    Removing stm32f10x_exti.o(i.EXTI_DeInit), (36 bytes).
    Removing stm32f10x_exti.o(i.EXTI_GenerateSWInterrupt), (16 bytes).
    Removing stm32f10x_exti.o(i.EXTI_GetFlagStatus), (24 bytes).
    Removing stm32f10x_exti.o(i.EXTI_GetITStatus), (40 bytes).
    Removing stm32f10x_exti.o(i.EXTI_Init), (148 bytes).
    Removing stm32f10x_exti.o(i.EXTI_StructInit), (16 bytes).
    Removing stm32f10x_flash.o(i.FLASH_ClearFlag), (12 bytes).
    Removing stm32f10x_flash.o(i.FLASH_EnableWriteProtection), (196 bytes).
    Removing stm32f10x_flash.o(i.FLASH_EraseAllBank1Pages), (72 bytes).
    Removing stm32f10x_flash.o(i.FLASH_EraseAllPages), (72 bytes).
    Removing stm32f10x_flash.o(i.FLASH_EraseOptionBytes), (168 bytes).
    Removing stm32f10x_flash.o(i.FLASH_ErasePage), (76 bytes).
    Removing stm32f10x_flash.o(i.FLASH_GetBank1Status), (52 bytes).
    Removing stm32f10x_flash.o(i.FLASH_GetFlagStatus), (48 bytes).
    Removing stm32f10x_flash.o(i.FLASH_GetPrefetchBufferStatus), (24 bytes).
    Removing stm32f10x_flash.o(i.FLASH_GetReadOutProtectionStatus), (24 bytes).
    Removing stm32f10x_flash.o(i.FLASH_GetStatus), (52 bytes).
    Removing stm32f10x_flash.o(i.FLASH_GetUserOptionByte), (12 bytes).
    Removing stm32f10x_flash.o(i.FLASH_GetWriteProtectionOptionByte), (12 bytes).
    Removing stm32f10x_flash.o(i.FLASH_HalfCycleAccessCmd), (28 bytes).
    Removing stm32f10x_flash.o(i.FLASH_ITConfig), (32 bytes).
    Removing stm32f10x_flash.o(i.FLASH_Lock), (20 bytes).
    Removing stm32f10x_flash.o(i.FLASH_LockBank1), (20 bytes).
    Removing stm32f10x_flash.o(i.FLASH_PrefetchBufferCmd), (28 bytes).
    Removing stm32f10x_flash.o(i.FLASH_ProgramHalfWord), (64 bytes).
    Removing stm32f10x_flash.o(i.FLASH_ProgramOptionByteData), (84 bytes).
    Removing stm32f10x_flash.o(i.FLASH_ProgramWord), (108 bytes).
    Removing stm32f10x_flash.o(i.FLASH_ReadOutProtection), (172 bytes).
    Removing stm32f10x_flash.o(i.FLASH_SetLatency), (24 bytes).
    Removing stm32f10x_flash.o(i.FLASH_Unlock), (24 bytes).
    Removing stm32f10x_flash.o(i.FLASH_UnlockBank1), (24 bytes).
    Removing stm32f10x_flash.o(i.FLASH_UserOptionByteConfig), (104 bytes).
    Removing stm32f10x_flash.o(i.FLASH_WaitForLastBank1Operation), (38 bytes).
    Removing stm32f10x_flash.o(i.FLASH_WaitForLastOperation), (38 bytes).
    Removing stm32f10x_fsmc.o(i.FSMC_ClearFlag), (64 bytes).
    Removing stm32f10x_fsmc.o(i.FSMC_ClearITPendingBit), (72 bytes).
    Removing stm32f10x_fsmc.o(i.FSMC_GetECC), (28 bytes).
    Removing stm32f10x_fsmc.o(i.FSMC_GetFlagStatus), (56 bytes).
    Removing stm32f10x_fsmc.o(i.FSMC_GetITStatus), (68 bytes).
    Removing stm32f10x_fsmc.o(i.FSMC_ITConfig), (128 bytes).
    Removing stm32f10x_fsmc.o(i.FSMC_NANDCmd), (92 bytes).
    Removing stm32f10x_fsmc.o(i.FSMC_NANDDeInit), (68 bytes).
    Removing stm32f10x_fsmc.o(i.FSMC_NANDECCCmd), (92 bytes).
    Removing stm32f10x_fsmc.o(i.FSMC_NANDInit), (136 bytes).
    Removing stm32f10x_fsmc.o(i.FSMC_NANDStructInit), (54 bytes).
    Removing stm32f10x_fsmc.o(i.FSMC_NORSRAMCmd), (52 bytes).
    Removing stm32f10x_fsmc.o(i.FSMC_NORSRAMDeInit), (54 bytes).
    Removing stm32f10x_fsmc.o(i.FSMC_NORSRAMInit), (230 bytes).
    Removing stm32f10x_fsmc.o(i.FSMC_NORSRAMStructInit), (114 bytes).
    Removing stm32f10x_fsmc.o(i.FSMC_PCCARDCmd), (48 bytes).
    Removing stm32f10x_fsmc.o(i.FSMC_PCCARDDeInit), (40 bytes).
    Removing stm32f10x_fsmc.o(i.FSMC_PCCARDInit), (132 bytes).
    Removing stm32f10x_fsmc.o(i.FSMC_PCCARDStructInit), (60 bytes).
    Removing stm32f10x_gpio.o(i.GPIO_AFIODeInit), (20 bytes).
    Removing stm32f10x_gpio.o(i.GPIO_DeInit), (200 bytes).
    Removing stm32f10x_gpio.o(i.GPIO_ETH_MediaInterfaceConfig), (12 bytes).
    Removing stm32f10x_gpio.o(i.GPIO_EXTILineConfig), (64 bytes).
    Removing stm32f10x_gpio.o(i.GPIO_EventOutputCmd), (12 bytes).
    Removing stm32f10x_gpio.o(i.GPIO_EventOutputConfig), (32 bytes).
    Removing stm32f10x_gpio.o(i.GPIO_PinLockConfig), (18 bytes).
    Removing stm32f10x_gpio.o(i.GPIO_PinRemapConfig), (144 bytes).
    Removing stm32f10x_gpio.o(i.GPIO_ReadInputData), (8 bytes).
    Removing stm32f10x_gpio.o(i.GPIO_ReadOutputData), (8 bytes).
    Removing stm32f10x_gpio.o(i.GPIO_ReadOutputDataBit), (18 bytes).
    Removing stm32f10x_gpio.o(i.GPIO_StructInit), (16 bytes).
    Removing stm32f10x_gpio.o(i.GPIO_Write), (4 bytes).
    Removing stm32f10x_i2c.o(i.I2C_ARPCmd), (24 bytes).
    Removing stm32f10x_i2c.o(i.I2C_AcknowledgeConfig), (24 bytes).
    Removing stm32f10x_i2c.o(i.I2C_CalculatePEC), (24 bytes).
    Removing stm32f10x_i2c.o(i.I2C_CheckEvent), (42 bytes).
    Removing stm32f10x_i2c.o(i.I2C_ClearFlag), (12 bytes).
    Removing stm32f10x_i2c.o(i.I2C_ClearITPendingBit), (12 bytes).
    Removing stm32f10x_i2c.o(i.I2C_Cmd), (24 bytes).
    Removing stm32f10x_i2c.o(i.I2C_DMACmd), (24 bytes).
    Removing stm32f10x_i2c.o(i.I2C_DMALastTransferCmd), (24 bytes).
    Removing stm32f10x_i2c.o(i.I2C_DeInit), (56 bytes).
    Removing stm32f10x_i2c.o(i.I2C_DualAddressCmd), (24 bytes).
    Removing stm32f10x_i2c.o(i.I2C_FastModeDutyCycleConfig), (28 bytes).
    Removing stm32f10x_i2c.o(i.I2C_GeneralCallCmd), (24 bytes).
    Removing stm32f10x_i2c.o(i.I2C_GenerateSTART), (24 bytes).
    Removing stm32f10x_i2c.o(i.I2C_GenerateSTOP), (24 bytes).
    Removing stm32f10x_i2c.o(i.I2C_GetFlagStatus), (58 bytes).
    Removing stm32f10x_i2c.o(i.I2C_GetITStatus), (38 bytes).
    Removing stm32f10x_i2c.o(i.I2C_GetLastEvent), (26 bytes).
    Removing stm32f10x_i2c.o(i.I2C_GetPEC), (8 bytes).
    Removing stm32f10x_i2c.o(i.I2C_ITConfig), (18 bytes).
    Removing stm32f10x_i2c.o(i.I2C_Init), (236 bytes).
    Removing stm32f10x_i2c.o(i.I2C_NACKPositionConfig), (28 bytes).
    Removing stm32f10x_i2c.o(i.I2C_OwnAddress2Config), (22 bytes).
    Removing stm32f10x_i2c.o(i.I2C_PECPositionConfig), (28 bytes).
    Removing stm32f10x_i2c.o(i.I2C_ReadRegister), (22 bytes).
    Removing stm32f10x_i2c.o(i.I2C_ReceiveData), (8 bytes).
    Removing stm32f10x_i2c.o(i.I2C_SMBusAlertConfig), (28 bytes).
    Removing stm32f10x_i2c.o(i.I2C_Send7bitAddress), (18 bytes).
    Removing stm32f10x_i2c.o(i.I2C_SendData), (4 bytes).
    Removing stm32f10x_i2c.o(i.I2C_SoftwareResetCmd), (22 bytes).
    Removing stm32f10x_i2c.o(i.I2C_StretchClockCmd), (24 bytes).
    Removing stm32f10x_i2c.o(i.I2C_StructInit), (30 bytes).
    Removing stm32f10x_i2c.o(i.I2C_TransmitPEC), (24 bytes).
    Removing stm32f10x_iwdg.o(i.IWDG_Enable), (16 bytes).
    Removing stm32f10x_iwdg.o(i.IWDG_GetFlagStatus), (24 bytes).
    Removing stm32f10x_iwdg.o(i.IWDG_ReloadCounter), (16 bytes).
    Removing stm32f10x_iwdg.o(i.IWDG_SetPrescaler), (12 bytes).
    Removing stm32f10x_iwdg.o(i.IWDG_SetReload), (12 bytes).
    Removing stm32f10x_iwdg.o(i.IWDG_WriteAccessCmd), (12 bytes).
    Removing stm32f10x_pwr.o(i.PWR_BackupAccessCmd), (12 bytes).
    Removing stm32f10x_pwr.o(i.PWR_ClearFlag), (20 bytes).
    Removing stm32f10x_pwr.o(i.PWR_DeInit), (22 bytes).
    Removing stm32f10x_pwr.o(i.PWR_EnterSTANDBYMode), (52 bytes).
    Removing stm32f10x_pwr.o(i.PWR_EnterSTOPMode), (64 bytes).
    Removing stm32f10x_pwr.o(i.PWR_GetFlagStatus), (24 bytes).
    Removing stm32f10x_pwr.o(i.PWR_PVDCmd), (12 bytes).
    Removing stm32f10x_pwr.o(i.PWR_PVDLevelConfig), (24 bytes).
    Removing stm32f10x_pwr.o(i.PWR_WakeUpPinCmd), (12 bytes).
    Removing stm32f10x_rcc.o(i.RCC_ADCCLKConfig), (24 bytes).
    Removing stm32f10x_rcc.o(i.RCC_APB1PeriphClockCmd), (32 bytes).
    Removing stm32f10x_rcc.o(i.RCC_AdjustHSICalibrationValue), (24 bytes).
    Removing stm32f10x_rcc.o(i.RCC_BackupResetCmd), (12 bytes).
    Removing stm32f10x_rcc.o(i.RCC_ClearFlag), (20 bytes).
    Removing stm32f10x_rcc.o(i.RCC_ClearITPendingBit), (12 bytes).
    Removing stm32f10x_rcc.o(i.RCC_ClockSecuritySystemCmd), (12 bytes).
    Removing stm32f10x_rcc.o(i.RCC_DeInit), (76 bytes).
    Removing stm32f10x_rcc.o(i.RCC_GetFlagStatus), (60 bytes).
    Removing stm32f10x_rcc.o(i.RCC_GetITStatus), (24 bytes).
    Removing stm32f10x_rcc.o(i.RCC_GetSYSCLKSource), (16 bytes).
    Removing stm32f10x_rcc.o(i.RCC_HCLKConfig), (24 bytes).
    Removing stm32f10x_rcc.o(i.RCC_HSEConfig), (76 bytes).
    Removing stm32f10x_rcc.o(i.RCC_HSICmd), (12 bytes).
    Removing stm32f10x_rcc.o(i.RCC_ITConfig), (32 bytes).
    Removing stm32f10x_rcc.o(i.RCC_LSEConfig), (52 bytes).
    Removing stm32f10x_rcc.o(i.RCC_LSICmd), (12 bytes).
    Removing stm32f10x_rcc.o(i.RCC_MCOConfig), (12 bytes).
    Removing stm32f10x_rcc.o(i.RCC_PCLK1Config), (24 bytes).
    Removing stm32f10x_rcc.o(i.RCC_PCLK2Config), (24 bytes).
    Removing stm32f10x_rcc.o(i.RCC_PLLCmd), (12 bytes).
    Removing stm32f10x_rcc.o(i.RCC_PLLConfig), (28 bytes).
    Removing stm32f10x_rcc.o(i.RCC_RTCCLKCmd), (12 bytes).
    Removing stm32f10x_rcc.o(i.RCC_RTCCLKConfig), (16 bytes).
    Removing stm32f10x_rcc.o(i.RCC_SYSCLKConfig), (24 bytes).
    Removing stm32f10x_rcc.o(i.RCC_USBCLKConfig), (12 bytes).
    Removing stm32f10x_rcc.o(i.RCC_WaitForHSEStartUp), (56 bytes).
    Removing stm32f10x_rtc.o(i.RTC_ClearFlag), (16 bytes).
    Removing stm32f10x_rtc.o(i.RTC_ClearITPendingBit), (16 bytes).
    Removing stm32f10x_rtc.o(i.RTC_EnterConfigMode), (20 bytes).
    Removing stm32f10x_rtc.o(i.RTC_ExitConfigMode), (20 bytes).
    Removing stm32f10x_rtc.o(i.RTC_GetCounter), (20 bytes).
    Removing stm32f10x_rtc.o(i.RTC_GetDivider), (24 bytes).
    Removing stm32f10x_rtc.o(i.RTC_GetFlagStatus), (24 bytes).
    Removing stm32f10x_rtc.o(i.RTC_GetITStatus), (36 bytes).
    Removing stm32f10x_rtc.o(i.RTC_ITConfig), (32 bytes).
    Removing stm32f10x_rtc.o(i.RTC_SetAlarm), (28 bytes).
    Removing stm32f10x_rtc.o(i.RTC_SetCounter), (28 bytes).
    Removing stm32f10x_rtc.o(i.RTC_SetPrescaler), (32 bytes).
    Removing stm32f10x_rtc.o(i.RTC_WaitForLastTask), (20 bytes).
    Removing stm32f10x_rtc.o(i.RTC_WaitForSynchro), (36 bytes).
    Removing stm32f10x_sdio.o(i.SDIO_CEATAITCmd), (16 bytes).
    Removing stm32f10x_sdio.o(i.SDIO_ClearFlag), (12 bytes).
    Removing stm32f10x_sdio.o(i.SDIO_ClearITPendingBit), (12 bytes).
    Removing stm32f10x_sdio.o(i.SDIO_ClockCmd), (12 bytes).
    Removing stm32f10x_sdio.o(i.SDIO_CmdStructInit), (14 bytes).
    Removing stm32f10x_sdio.o(i.SDIO_CommandCompletionCmd), (12 bytes).
    Removing stm32f10x_sdio.o(i.SDIO_DMACmd), (12 bytes).
    Removing stm32f10x_sdio.o(i.SDIO_DataConfig), (48 bytes).
    Removing stm32f10x_sdio.o(i.SDIO_DataStructInit), (20 bytes).
    Removing stm32f10x_sdio.o(i.SDIO_DeInit), (36 bytes).
    Removing stm32f10x_sdio.o(i.SDIO_GetCommandResponse), (12 bytes).
    Removing stm32f10x_sdio.o(i.SDIO_GetDataCounter), (12 bytes).
    Removing stm32f10x_sdio.o(i.SDIO_GetFIFOCount), (12 bytes).
    Removing stm32f10x_sdio.o(i.SDIO_GetFlagStatus), (24 bytes).
    Removing stm32f10x_sdio.o(i.SDIO_GetITStatus), (24 bytes).
    Removing stm32f10x_sdio.o(i.SDIO_GetPowerState), (16 bytes).
    Removing stm32f10x_sdio.o(i.SDIO_GetResponse), (24 bytes).
    Removing stm32f10x_sdio.o(i.SDIO_ITConfig), (32 bytes).
    Removing stm32f10x_sdio.o(i.SDIO_Init), (48 bytes).
    Removing stm32f10x_sdio.o(i.SDIO_ReadData), (12 bytes).
    Removing stm32f10x_sdio.o(i.SDIO_SendCEATACmd), (12 bytes).
    Removing stm32f10x_sdio.o(i.SDIO_SendCommand), (44 bytes).
    Removing stm32f10x_sdio.o(i.SDIO_SendSDIOSuspendCmd), (12 bytes).
    Removing stm32f10x_sdio.o(i.SDIO_SetPowerState), (28 bytes).
    Removing stm32f10x_sdio.o(i.SDIO_SetSDIOOperation), (12 bytes).
    Removing stm32f10x_sdio.o(i.SDIO_SetSDIOReadWaitMode), (12 bytes).
    Removing stm32f10x_sdio.o(i.SDIO_StartSDIOReadWait), (12 bytes).
    Removing stm32f10x_sdio.o(i.SDIO_StopSDIOReadWait), (12 bytes).
    Removing stm32f10x_sdio.o(i.SDIO_StructInit), (16 bytes).
    Removing stm32f10x_sdio.o(i.SDIO_WriteData), (12 bytes).
    Removing stm32f10x_spi.o(i.I2S_Cmd), (24 bytes).
    Removing stm32f10x_spi.o(i.I2S_Init), (232 bytes).
    Removing stm32f10x_spi.o(i.I2S_StructInit), (20 bytes).
    Removing stm32f10x_spi.o(i.SPI_BiDirectionalLineConfig), (28 bytes).
    Removing stm32f10x_spi.o(i.SPI_CalculateCRC), (24 bytes).
    Removing stm32f10x_spi.o(i.SPI_Cmd), (24 bytes).
    Removing stm32f10x_spi.o(i.SPI_DataSizeConfig), (18 bytes).
    Removing stm32f10x_spi.o(i.SPI_GetCRC), (16 bytes).
    Removing stm32f10x_spi.o(i.SPI_GetCRCPolynomial), (6 bytes).
    Removing stm32f10x_spi.o(i.SPI_I2S_ClearFlag), (6 bytes).
    Removing stm32f10x_spi.o(i.SPI_I2S_ClearITPendingBit), (20 bytes).
    Removing stm32f10x_spi.o(i.SPI_I2S_DMACmd), (18 bytes).
    Removing stm32f10x_spi.o(i.SPI_I2S_DeInit), (88 bytes).
    Removing stm32f10x_spi.o(i.SPI_I2S_GetFlagStatus), (18 bytes).
    Removing stm32f10x_spi.o(i.SPI_I2S_GetITStatus), (52 bytes).
    Removing stm32f10x_spi.o(i.SPI_I2S_ITConfig), (32 bytes).
    Removing stm32f10x_spi.o(i.SPI_I2S_ReceiveData), (6 bytes).
    Removing stm32f10x_spi.o(i.SPI_I2S_SendData), (4 bytes).
    Removing stm32f10x_spi.o(i.SPI_Init), (60 bytes).
    Removing stm32f10x_spi.o(i.SPI_NSSInternalSoftwareConfig), (30 bytes).
    Removing stm32f10x_spi.o(i.SPI_SSOutputCmd), (24 bytes).
    Removing stm32f10x_spi.o(i.SPI_StructInit), (24 bytes).
    Removing stm32f10x_spi.o(i.SPI_TransmitCRC), (10 bytes).
    Removing stm32f10x_tim.o(i.TI1_Config), (128 bytes).
    Removing stm32f10x_tim.o(i.TI2_Config), (152 bytes).
    Removing stm32f10x_tim.o(i.TI3_Config), (144 bytes).
    Removing stm32f10x_tim.o(i.TI4_Config), (152 bytes).
    Removing stm32f10x_tim.o(i.TIM_BDTRConfig), (32 bytes).
    Removing stm32f10x_tim.o(i.TIM_BDTRStructInit), (18 bytes).
    Removing stm32f10x_tim.o(i.TIM_CCPreloadControl), (24 bytes).
    Removing stm32f10x_tim.o(i.TIM_CCxCmd), (30 bytes).
    Removing stm32f10x_tim.o(i.TIM_CCxNCmd), (30 bytes).
    Removing stm32f10x_tim.o(i.TIM_ClearFlag), (6 bytes).
    Removing stm32f10x_tim.o(i.TIM_ClearITPendingBit), (6 bytes).
    Removing stm32f10x_tim.o(i.TIM_ClearOC1Ref), (18 bytes).
    Removing stm32f10x_tim.o(i.TIM_ClearOC2Ref), (24 bytes).
    Removing stm32f10x_tim.o(i.TIM_ClearOC3Ref), (18 bytes).
    Removing stm32f10x_tim.o(i.TIM_ClearOC4Ref), (24 bytes).
    Removing stm32f10x_tim.o(i.TIM_CounterModeConfig), (18 bytes).
    Removing stm32f10x_tim.o(i.TIM_DMAConfig), (10 bytes).
    Removing stm32f10x_tim.o(i.TIM_ETRClockMode1Config), (54 bytes).
    Removing stm32f10x_tim.o(i.TIM_ETRClockMode2Config), (32 bytes).
    Removing stm32f10x_tim.o(i.TIM_ETRConfig), (28 bytes).
    Removing stm32f10x_tim.o(i.TIM_EncoderInterfaceConfig), (66 bytes).
    Removing stm32f10x_tim.o(i.TIM_ForcedOC1Config), (18 bytes).
    Removing stm32f10x_tim.o(i.TIM_ForcedOC2Config), (26 bytes).
    Removing stm32f10x_tim.o(i.TIM_ForcedOC3Config), (18 bytes).
    Removing stm32f10x_tim.o(i.TIM_ForcedOC4Config), (26 bytes).
    Removing stm32f10x_tim.o(i.TIM_GenerateEvent), (4 bytes).
    Removing stm32f10x_tim.o(i.TIM_GetCapture1), (6 bytes).
    Removing stm32f10x_tim.o(i.TIM_GetCapture2), (6 bytes).
    Removing stm32f10x_tim.o(i.TIM_GetCapture3), (6 bytes).
    Removing stm32f10x_tim.o(i.TIM_GetCapture4), (8 bytes).
    Removing stm32f10x_tim.o(i.TIM_GetCounter), (6 bytes).
    Removing stm32f10x_tim.o(i.TIM_GetFlagStatus), (18 bytes).
    Removing stm32f10x_tim.o(i.TIM_GetITStatus), (34 bytes).
    Removing stm32f10x_tim.o(i.TIM_GetPrescaler), (6 bytes).
    Removing stm32f10x_tim.o(i.TIM_ICInit), (172 bytes).
    Removing stm32f10x_tim.o(i.TIM_ICStructInit), (18 bytes).
    Removing stm32f10x_tim.o(i.TIM_ITConfig), (18 bytes).
    Removing stm32f10x_tim.o(i.TIM_ITRxExternalClockConfig), (24 bytes).
    Removing stm32f10x_tim.o(i.TIM_InternalClockConfig), (12 bytes).
    Removing stm32f10x_tim.o(i.TIM_OC1FastConfig), (18 bytes).
    Removing stm32f10x_tim.o(i.TIM_OC1NPolarityConfig), (18 bytes).
    Removing stm32f10x_tim.o(i.TIM_OC1PolarityConfig), (18 bytes).
    Removing stm32f10x_tim.o(i.TIM_OC2FastConfig), (26 bytes).
    Removing stm32f10x_tim.o(i.TIM_OC2Init), (164 bytes).
    Removing stm32f10x_tim.o(i.TIM_OC2NPolarityConfig), (26 bytes).
    Removing stm32f10x_tim.o(i.TIM_OC2PolarityConfig), (26 bytes).
    Removing stm32f10x_tim.o(i.TIM_OC2PreloadConfig), (26 bytes).
    Removing stm32f10x_tim.o(i.TIM_OC3FastConfig), (18 bytes).
    Removing stm32f10x_tim.o(i.TIM_OC3Init), (160 bytes).
    Removing stm32f10x_tim.o(i.TIM_OC3NPolarityConfig), (26 bytes).
    Removing stm32f10x_tim.o(i.TIM_OC3PolarityConfig), (26 bytes).
    Removing stm32f10x_tim.o(i.TIM_OC3PreloadConfig), (18 bytes).
    Removing stm32f10x_tim.o(i.TIM_OC4FastConfig), (26 bytes).
    Removing stm32f10x_tim.o(i.TIM_OC4Init), (124 bytes).
    Removing stm32f10x_tim.o(i.TIM_OC4PolarityConfig), (26 bytes).
    Removing stm32f10x_tim.o(i.TIM_OC4PreloadConfig), (26 bytes).
    Removing stm32f10x_tim.o(i.TIM_OCStructInit), (20 bytes).
    Removing stm32f10x_tim.o(i.TIM_PWMIConfig), (124 bytes).
    Removing stm32f10x_tim.o(i.TIM_PrescalerConfig), (6 bytes).
    Removing stm32f10x_tim.o(i.TIM_SelectCCDMA), (24 bytes).
    Removing stm32f10x_tim.o(i.TIM_SelectCOM), (24 bytes).
    Removing stm32f10x_tim.o(i.TIM_SelectHallSensor), (24 bytes).
    Removing stm32f10x_tim.o(i.TIM_SelectInputTrigger), (18 bytes).
    Removing stm32f10x_tim.o(i.TIM_SelectMasterSlaveMode), (18 bytes).
    Removing stm32f10x_tim.o(i.TIM_SelectOCxM), (82 bytes).
    Removing stm32f10x_tim.o(i.TIM_SelectOnePulseMode), (18 bytes).
    Removing stm32f10x_tim.o(i.TIM_SelectOutputTrigger), (18 bytes).
    Removing stm32f10x_tim.o(i.TIM_SelectSlaveMode), (18 bytes).
    Removing stm32f10x_tim.o(i.TIM_SetAutoreload), (4 bytes).
    Removing stm32f10x_tim.o(i.TIM_SetClockDivision), (18 bytes).
    Removing stm32f10x_tim.o(i.TIM_SetCompare1), (4 bytes).
    Removing stm32f10x_tim.o(i.TIM_SetCompare2), (4 bytes).
    Removing stm32f10x_tim.o(i.TIM_SetCompare3), (4 bytes).
    Removing stm32f10x_tim.o(i.TIM_SetCompare4), (6 bytes).
    Removing stm32f10x_tim.o(i.TIM_SetCounter), (4 bytes).
    Removing stm32f10x_tim.o(i.TIM_SetIC1Prescaler), (18 bytes).
    Removing stm32f10x_tim.o(i.TIM_SetIC2Prescaler), (26 bytes).
    Removing stm32f10x_tim.o(i.TIM_SetIC3Prescaler), (18 bytes).
    Removing stm32f10x_tim.o(i.TIM_SetIC4Prescaler), (26 bytes).
    Removing stm32f10x_tim.o(i.TIM_TIxExternalClockConfig), (62 bytes).
    Removing stm32f10x_tim.o(i.TIM_TimeBaseStructInit), (18 bytes).
    Removing stm32f10x_tim.o(i.TIM_UpdateDisableConfig), (24 bytes).
    Removing stm32f10x_tim.o(i.TIM_UpdateRequestConfig), (24 bytes).
    Removing stm32f10x_usart.o(i.USART_ClearFlag), (18 bytes).
    Removing stm32f10x_usart.o(i.USART_ClearITPendingBit), (30 bytes).
    Removing stm32f10x_usart.o(i.USART_ClockInit), (34 bytes).
    Removing stm32f10x_usart.o(i.USART_ClockStructInit), (12 bytes).
    Removing stm32f10x_usart.o(i.USART_DMACmd), (18 bytes).
    Removing stm32f10x_usart.o(i.USART_DeInit), (156 bytes).
    Removing stm32f10x_usart.o(i.USART_HalfDuplexCmd), (24 bytes).
    Removing stm32f10x_usart.o(i.USART_IrDACmd), (24 bytes).
    Removing stm32f10x_usart.o(i.USART_IrDAConfig), (18 bytes).
    Removing stm32f10x_usart.o(i.USART_LINBreakDetectLengthConfig), (18 bytes).
    Removing stm32f10x_usart.o(i.USART_LINCmd), (24 bytes).
    Removing stm32f10x_usart.o(i.USART_OneBitMethodCmd), (24 bytes).
    Removing stm32f10x_usart.o(i.USART_OverSampling8Cmd), (22 bytes).
    Removing stm32f10x_usart.o(i.USART_ReceiveData), (10 bytes).
    Removing stm32f10x_usart.o(i.USART_ReceiverWakeUpCmd), (24 bytes).
    Removing stm32f10x_usart.o(i.USART_SendBreak), (10 bytes).
    Removing stm32f10x_usart.o(i.USART_SetAddress), (18 bytes).
    Removing stm32f10x_usart.o(i.USART_SetGuardTime), (16 bytes).
    Removing stm32f10x_usart.o(i.USART_SetPrescaler), (16 bytes).
    Removing stm32f10x_usart.o(i.USART_SmartCardCmd), (24 bytes).
    Removing stm32f10x_usart.o(i.USART_SmartCardNACKCmd), (24 bytes).
    Removing stm32f10x_usart.o(i.USART_StructInit), (24 bytes).
    Removing stm32f10x_usart.o(i.USART_WakeUpConfig), (18 bytes).
    Removing stm32f10x_wwdg.o(i.WWDG_ClearFlag), (12 bytes).
    Removing stm32f10x_wwdg.o(i.WWDG_DeInit), (22 bytes).
    Removing stm32f10x_wwdg.o(i.WWDG_Enable), (16 bytes).
    Removing stm32f10x_wwdg.o(i.WWDG_EnableIT), (12 bytes).
    Removing stm32f10x_wwdg.o(i.WWDG_GetFlagStatus), (12 bytes).
    Removing stm32f10x_wwdg.o(i.WWDG_SetCounter), (16 bytes).
    Removing stm32f10x_wwdg.o(i.WWDG_SetPrescaler), (24 bytes).
    Removing stm32f10x_wwdg.o(i.WWDG_SetWindowValue), (40 bytes).
    Removing main.o(i.showQRCode), (368 bytes).
    Removing main.o(.bss), (94 bytes).
    Removing beep.o(i.beepOff), (10 bytes).
    Removing beep.o(i.beepOn), (10 bytes).
    Removing rc522.o(i.PcdHalt), (50 bytes).
    Removing rc522.o(i.PcdWrite), (146 bytes).
    Removing delay.o(i.delay_us), (76 bytes).
    Removing sys.o(.emb_text), (6 bytes).
    Removing sys.o(i.INTX_DISABLE), (4 bytes).
    Removing sys.o(i.INTX_ENABLE), (4 bytes).
    Removing sys.o(i.WFI_SET), (4 bytes).
    Removing oled.o(i.OLED_DisPlay_Off), (28 bytes).
    Removing oled.o(i.OLED_DisPlay_On), (28 bytes).
    Removing oled.o(i.OLED_DrawCircle), (168 bytes).
    Removing oled.o(i.OLED_DrawLine), (172 bytes).
    Removing oled.o(i.OLED_Pow), (22 bytes).
    Removing oled.o(i.OLED_ScrollDisplay), (172 bytes).
    Removing oled.o(i.OLED_ShowChinese), (260 bytes).
    Removing oled.o(i.OLED_ShowNum), (140 bytes).
    Removing oled.o(i.OLED_ShowPicture), (214 bytes).
    Removing ws2812.o(i.rainbow), (56 bytes).
    Removing ws2812.o(i.ws2812bClear), (14 bytes).
    Removing ws2812.o(i.ws2812bSet_RGB), (52 bytes).
    Removing ws2812.o(i.ws2812bTest), (12 bytes).
    Removing servo.o(i.TIM3_PWM_Init), (144 bytes).
    Removing commonfunction.o(i.myatoi), (96 bytes).
    Removing commonfunction.o(i.myitoa), (98 bytes).
    Removing bitstream.o(i.BitStream_append), (82 bytes).
    Removing qrencode.o(i.QRcode_APIVersion), (20 bytes).
    Removing qrencode.o(i.QRcode_APIVersionString), (12 bytes).
    Removing qrencode.o(i.QRcode_List_free), (24 bytes).
    Removing qrencode.o(i.QRcode_List_freeEntry), (20 bytes).
    Removing qrencode.o(i.QRcode_List_newEntry), (26 bytes).
    Removing qrencode.o(i.QRcode_List_size), (18 bytes).
    Removing qrencode.o(i.QRcode_clearCache), (2 bytes).
    Removing qrencode.o(i.QRcode_encodeData), (28 bytes).
    Removing qrencode.o(i.QRcode_encodeDataMQR), (60 bytes).
    Removing qrencode.o(i.QRcode_encodeDataReal), (114 bytes).
    Removing qrencode.o(i.QRcode_encodeDataStructured), (36 bytes).
    Removing qrencode.o(i.QRcode_encodeDataStructuredReal), (148 bytes).
    Removing qrencode.o(i.QRcode_encodeInputStructured), (84 bytes).
    Removing qrencode.o(i.QRcode_encodeInputToStructured), (36 bytes).
    Removing qrencode.o(i.QRcode_encodeString8bit), (48 bytes).
    Removing qrencode.o(i.QRcode_encodeString8bitMQR), (80 bytes).
    Removing qrencode.o(i.QRcode_encodeString8bitStructured), (46 bytes).
    Removing qrencode.o(i.QRcode_encodeStringMQR), (60 bytes).
    Removing qrencode.o(i.QRcode_encodeStringStructured), (60 bytes).
    Removing qrinput.o(i.QRinput_InputList_freeEntry), (20 bytes).
    Removing qrinput.o(i.QRinput_InputList_newEntry), (28 bytes).
    Removing qrinput.o(i.QRinput_List_dup), (68 bytes).
    Removing qrinput.o(i.QRinput_List_shrinkEntry), (46 bytes).
    Removing qrinput.o(i.QRinput_Struct_appendInput), (64 bytes).
    Removing qrinput.o(i.QRinput_Struct_calcParity), (36 bytes).
    Removing qrinput.o(i.QRinput_Struct_free), (32 bytes).
    Removing qrinput.o(i.QRinput_Struct_insertStructuredAppendHeaders), (64 bytes).
    Removing qrinput.o(i.QRinput_Struct_new), (34 bytes).
    Removing qrinput.o(i.QRinput_Struct_setParity), (4 bytes).
    Removing qrinput.o(i.QRinput_appendECIheader), (68 bytes).
    Removing qrinput.o(i.QRinput_calcParity), (42 bytes).
    Removing qrinput.o(i.QRinput_dup), (82 bytes).
    Removing qrinput.o(i.QRinput_getErrorCorrectionLevel), (6 bytes).
    Removing qrinput.o(i.QRinput_insertStructuredAppendHeader), (96 bytes).
    Removing qrinput.o(i.QRinput_lengthOfCode), (174 bytes).
    Removing qrinput.o(i.QRinput_new), (12 bytes).
    Removing qrinput.o(i.QRinput_setErrorCorrectionLevel), (32 bytes).
    Removing qrinput.o(i.QRinput_setFNC1First), (28 bytes).
    Removing qrinput.o(i.QRinput_setFNC1Second), (32 bytes).
    Removing qrinput.o(i.QRinput_setVersionAndErrorCorrectionLevel), (70 bytes).
    Removing qrinput.o(i.QRinput_splitEntry), (72 bytes).
    Removing qrinput.o(i.QRinput_splitQRinputToStruct), (424 bytes).

500 unused section(s) (total 21222 bytes) removed from the image.

==============================================================================

Image Symbol Table

    Local Symbols

    Symbol Name                              Value     Ov Type        Size  Object(Section)

    ../clib/angel/boardlib.s                 0x00000000   Number         0  boardinit2.o ABSOLUTE
    ../clib/angel/boardlib.s                 0x00000000   Number         0  boardinit1.o ABSOLUTE
    ../clib/angel/boardlib.s                 0x00000000   Number         0  boardinit3.o ABSOLUTE
    ../clib/angel/boardlib.s                 0x00000000   Number         0  boardshut.o ABSOLUTE
    ../clib/angel/dclz77c.s                  0x00000000   Number         0  __dclz77c.o ABSOLUTE
    ../clib/angel/handlers.s                 0x00000000   Number         0  __scatter_zi.o ABSOLUTE
    ../clib/angel/kernel.s                   0x00000000   Number         0  __rtentry.o ABSOLUTE
    ../clib/angel/kernel.s                   0x00000000   Number         0  __rtentry2.o ABSOLUTE
    ../clib/angel/kernel.s                   0x00000000   Number         0  rtexit.o ABSOLUTE
    ../clib/angel/kernel.s                   0x00000000   Number         0  __rtentry4.o ABSOLUTE
    ../clib/angel/kernel.s                   0x00000000   Number         0  rtexit2.o ABSOLUTE
    ../clib/angel/rt.s                       0x00000000   Number         0  rt_errno_addr_intlibspace.o ABSOLUTE
    ../clib/angel/rt.s                       0x00000000   Number         0  rt_raise.o ABSOLUTE
    ../clib/angel/rt.s                       0x00000000   Number         0  rt_errno_addr.o ABSOLUTE
    ../clib/angel/rt.s                       0x00000000   Number         0  rt_heap_descriptor_intlibspace.o ABSOLUTE
    ../clib/angel/rt.s                       0x00000000   Number         0  rt_heap_descriptor.o ABSOLUTE
    ../clib/angel/scatter.s                  0x00000000   Number         0  __scatter.o ABSOLUTE
    ../clib/angel/startup.s                  0x00000000   Number         0  __main.o ABSOLUTE
    ../clib/angel/sys.s                      0x00000000   Number         0  sys_stackheap_outer.o ABSOLUTE
    ../clib/angel/sys.s                      0x00000000   Number         0  use_no_semi.o ABSOLUTE
    ../clib/angel/sys.s                      0x00000000   Number         0  mutex_dummy.o ABSOLUTE
    ../clib/angel/sys.s                      0x00000000   Number         0  indicate_semi.o ABSOLUTE
    ../clib/angel/sys.s                      0x00000000   Number         0  libspace.o ABSOLUTE
    ../clib/angel/sysapp.c                   0x00000000   Number         0  sys_command.o ABSOLUTE
    ../clib/angel/sysapp.c                   0x00000000   Number         0  sys_exit.o ABSOLUTE
    ../clib/angel/sysapp.c                   0x00000000   Number         0  sys_wrch.o ABSOLUTE
    ../clib/armsys.c                         0x00000000   Number         0  _get_argv_nomalloc.o ABSOLUTE
    ../clib/armsys.c                         0x00000000   Number         0  no_argv.o ABSOLUTE
    ../clib/armsys.c                         0x00000000   Number         0  _get_argv.o ABSOLUTE
    ../clib/armsys.c                         0x00000000   Number         0  argv_veneer.o ABSOLUTE
    ../clib/armsys.c                         0x00000000   Number         0  argv_veneer.o ABSOLUTE
    ../clib/heap1.c                          0x00000000   Number         0  h1_alloc.o ABSOLUTE
    ../clib/heap1.c                          0x00000000   Number         0  h1_free.o ABSOLUTE
    ../clib/heap1.c                          0x00000000   Number         0  h1_realloc.o ABSOLUTE
    ../clib/heap1.c                          0x00000000   Number         0  h1_alloc_mt.o ABSOLUTE
    ../clib/heap1.c                          0x00000000   Number         0  h1_free_mt.o ABSOLUTE
    ../clib/heap1.c                          0x00000000   Number         0  h1_realloc_mt.o ABSOLUTE
    ../clib/heap1.c                          0x00000000   Number         0  h1_final.o ABSOLUTE
    ../clib/heap1.c                          0x00000000   Number         0  h1_final_mt.o ABSOLUTE
    ../clib/heap1.c                          0x00000000   Number         0  h1_init.o ABSOLUTE
    ../clib/heap1.c                          0x00000000   Number         0  h1_init_mt.o ABSOLUTE
    ../clib/heap1.c                          0x00000000   Number         0  h1_extend.o ABSOLUTE
    ../clib/heap1.c                          0x00000000   Number         0  h1_extend_mt.o ABSOLUTE
    ../clib/heap2.c                          0x00000000   Number         0  heap2.o ABSOLUTE
    ../clib/heap2.c                          0x00000000   Number         0  fdtree.o ABSOLUTE
    ../clib/heap2.c                          0x00000000   Number         0  heap2mt.o ABSOLUTE
    ../clib/heapalloc.c                      0x00000000   Number         0  init_alloc.o ABSOLUTE
    ../clib/heapalloc.c                      0x00000000   Number         0  hguard.o ABSOLUTE
    ../clib/heapalloc.c                      0x00000000   Number         0  calloc.o ABSOLUTE
    ../clib/heapalloc.c                      0x00000000   Number         0  realloc.o ABSOLUTE
    ../clib/heapalloc.c                      0x00000000   Number         0  free.o ABSOLUTE
    ../clib/heapalloc.c                      0x00000000   Number         0  malloc.o ABSOLUTE
    ../clib/heapalloc.c                      0x00000000   Number         0  maybetermalloc1.o ABSOLUTE
    ../clib/heapalloc.c                      0x00000000   Number         0  term_alloc.o ABSOLUTE
    ../clib/heapalloc.c                      0x00000000   Number         0  heapstubs.o ABSOLUTE
    ../clib/heapalloc.c                      0x00000000   Number         0  maybetermalloc1.o ABSOLUTE
    ../clib/heapalloc.c                      0x00000000   Number         0  maybetermalloc2.o ABSOLUTE
    ../clib/heapalloc.c                      0x00000000   Number         0  hrguard.o ABSOLUTE
    ../clib/heapalloc.c                      0x00000000   Number         0  maybetermalloc2.o ABSOLUTE
    ../clib/heapaux.c                        0x00000000   Number         0  heapauxa.o ABSOLUTE
    ../clib/heapaux.c                        0x00000000   Number         0  heapauxi.o ABSOLUTE
    ../clib/libinit.s                        0x00000000   Number         0  libshutdown2.o ABSOLUTE
    ../clib/libinit.s                        0x00000000   Number         0  libshutdown.o ABSOLUTE
    ../clib/libinit.s                        0x00000000   Number         0  libinit.o ABSOLUTE
    ../clib/libinit.s                        0x00000000   Number         0  libinit2.o ABSOLUTE
    ../clib/memcpset.s                       0x00000000   Number         0  rt_memclr.o ABSOLUTE
    ../clib/memcpset.s                       0x00000000   Number         0  aeabi_memset.o ABSOLUTE
    ../clib/memcpset.s                       0x00000000   Number         0  rt_memcpy_w.o ABSOLUTE
    ../clib/memcpset.s                       0x00000000   Number         0  rt_memclr_w.o ABSOLUTE
    ../clib/memcpset.s                       0x00000000   Number         0  rt_memcpy_v6.o ABSOLUTE
    ../clib/memcpset.s                       0x00000000   Number         0  rt_memmove_v6.o ABSOLUTE
    ../clib/memcpset.s                       0x00000000   Number         0  memcpy.o ABSOLUTE
    ../clib/memcpset.s                       0x00000000   Number         0  rt_memmove_w.o ABSOLUTE
    ../clib/signal.c                         0x00000000   Number         0  defsig_rtmem_inner.o ABSOLUTE
    ../clib/signal.c                         0x00000000   Number         0  defsig_rtred_inner.o ABSOLUTE
    ../clib/signal.c                         0x00000000   Number         0  defsig_exit.o ABSOLUTE
    ../clib/signal.c                         0x00000000   Number         0  defsig_general.o ABSOLUTE
    ../clib/signal.c                         0x00000000   Number         0  defsig_rtmem_formal.o ABSOLUTE
    ../clib/signal.c                         0x00000000   Number         0  defsig_cppl_inner.o ABSOLUTE
    ../clib/signal.c                         0x00000000   Number         0  defsig_fpe_inner.o ABSOLUTE
    ../clib/signal.c                         0x00000000   Number         0  defsig_pvfn_inner.o ABSOLUTE
    ../clib/signal.c                         0x00000000   Number         0  __raise.o ABSOLUTE
    ../clib/signal.c                         0x00000000   Number         0  defsig_other.o ABSOLUTE
    ../clib/signal.c                         0x00000000   Number         0  defsig_rtmem_outer.o ABSOLUTE
    ../clib/signal.c                         0x00000000   Number         0  defsig_segv_inner.o ABSOLUTE
    ../clib/signal.c                         0x00000000   Number         0  defsig_stak_inner.o ABSOLUTE
    ../clib/signal.c                         0x00000000   Number         0  defsig_abrt_inner.o ABSOLUTE
    ../clib/signal.s                         0x00000000   Number         0  defsig.o ABSOLUTE
    ../clib/stdlib.c                         0x00000000   Number         0  exit.o ABSOLUTE
    ../clib/string.c                         0x00000000   Number         0  strstr.o ABSOLUTE
    ../clib/string.c                         0x00000000   Number         0  strlen.o ABSOLUTE
    ../clib/string.c                         0x00000000   Number         0  strcat.o ABSOLUTE
    ../fplib/fpinit.s                        0x00000000   Number         0  fpinit.o ABSOLUTE
    ..\AdditionalLib\libqrencode-4.1.1\bitstream.c 0x00000000   Number         0  bitstream.o ABSOLUTE
    ..\AdditionalLib\libqrencode-4.1.1\mask.c 0x00000000   Number         0  mask.o ABSOLUTE
    ..\AdditionalLib\libqrencode-4.1.1\mmask.c 0x00000000   Number         0  mmask.o ABSOLUTE
    ..\AdditionalLib\libqrencode-4.1.1\mqrspec.c 0x00000000   Number         0  mqrspec.o ABSOLUTE
    ..\AdditionalLib\libqrencode-4.1.1\qrencode.c 0x00000000   Number         0  qrencode.o ABSOLUTE
    ..\AdditionalLib\libqrencode-4.1.1\qrinput.c 0x00000000   Number         0  qrinput.o ABSOLUTE
    ..\AdditionalLib\libqrencode-4.1.1\qrspec.c 0x00000000   Number         0  qrspec.o ABSOLUTE
    ..\AdditionalLib\libqrencode-4.1.1\rsecc.c 0x00000000   Number         0  rsecc.o ABSOLUTE
    ..\AdditionalLib\libqrencode-4.1.1\split.c 0x00000000   Number         0  split.o ABSOLUTE
    ..\Hardware\Beep\beep.c                  0x00000000   Number         0  beep.o ABSOLUTE
    ..\Hardware\ESP8622\esp8266.c            0x00000000   Number         0  esp8266.o ABSOLUTE
    ..\Hardware\MFRC522\RC522.C              0x00000000   Number         0  rc522.o ABSOLUTE
    ..\Hardware\OLED\oled.c                  0x00000000   Number         0  oled.o ABSOLUTE
    ..\Hardware\WS2812\ws2812.c              0x00000000   Number         0  ws2812.o ABSOLUTE
    ..\Hardware\button\button.c              0x00000000   Number         0  button.o ABSOLUTE
    ..\Hardware\commonfunction\commonfunction.c 0x00000000   Number         0  commonfunction.o ABSOLUTE
    ..\Hardware\delay\delay.c                0x00000000   Number         0  delay.o ABSOLUTE
    ..\Hardware\rand\rand.c                  0x00000000   Number         0  rand.o ABSOLUTE
    ..\Hardware\relay\relay.c                0x00000000   Number         0  relay.o ABSOLUTE
    ..\Hardware\servo\servo.c                0x00000000   Number         0  servo.o ABSOLUTE
    ..\Hardware\sys\sys.c                    0x00000000   Number         0  sys.o ABSOLUTE
    ..\Hardware\usart\usart.c                0x00000000   Number         0  usart.o ABSOLUTE
    ..\Libraries\CMSIS\CM3\CoreSupport\core_cm3.c 0x00000000   Number         0  core_cm3.o ABSOLUTE
    ..\Libraries\CMSIS\CM3\DeviceSupport\ST\STM32F10x\startup\arm\startup_stm32f10x_md.s 0x00000000   Number         0  startup_stm32f10x_md.o ABSOLUTE
    ..\Libraries\CMSIS\CM3\DeviceSupport\ST\STM32F10x\system_stm32f10x.c 0x00000000   Number         0  system_stm32f10x.o ABSOLUTE
    ..\Libraries\STM32F10x_StdPeriph_Driver\src\misc.c 0x00000000   Number         0  misc.o ABSOLUTE
    ..\Libraries\STM32F10x_StdPeriph_Driver\src\stm32f10x_adc.c 0x00000000   Number         0  stm32f10x_adc.o ABSOLUTE
    ..\Libraries\STM32F10x_StdPeriph_Driver\src\stm32f10x_bkp.c 0x00000000   Number         0  stm32f10x_bkp.o ABSOLUTE
    ..\Libraries\STM32F10x_StdPeriph_Driver\src\stm32f10x_can.c 0x00000000   Number         0  stm32f10x_can.o ABSOLUTE
    ..\Libraries\STM32F10x_StdPeriph_Driver\src\stm32f10x_cec.c 0x00000000   Number         0  stm32f10x_cec.o ABSOLUTE
    ..\Libraries\STM32F10x_StdPeriph_Driver\src\stm32f10x_crc.c 0x00000000   Number         0  stm32f10x_crc.o ABSOLUTE
    ..\Libraries\STM32F10x_StdPeriph_Driver\src\stm32f10x_dac.c 0x00000000   Number         0  stm32f10x_dac.o ABSOLUTE
    ..\Libraries\STM32F10x_StdPeriph_Driver\src\stm32f10x_dbgmcu.c 0x00000000   Number         0  stm32f10x_dbgmcu.o ABSOLUTE
    ..\Libraries\STM32F10x_StdPeriph_Driver\src\stm32f10x_dma.c 0x00000000   Number         0  stm32f10x_dma.o ABSOLUTE
    ..\Libraries\STM32F10x_StdPeriph_Driver\src\stm32f10x_exti.c 0x00000000   Number         0  stm32f10x_exti.o ABSOLUTE
    ..\Libraries\STM32F10x_StdPeriph_Driver\src\stm32f10x_flash.c 0x00000000   Number         0  stm32f10x_flash.o ABSOLUTE
    ..\Libraries\STM32F10x_StdPeriph_Driver\src\stm32f10x_fsmc.c 0x00000000   Number         0  stm32f10x_fsmc.o ABSOLUTE
    ..\Libraries\STM32F10x_StdPeriph_Driver\src\stm32f10x_gpio.c 0x00000000   Number         0  stm32f10x_gpio.o ABSOLUTE
    ..\Libraries\STM32F10x_StdPeriph_Driver\src\stm32f10x_i2c.c 0x00000000   Number         0  stm32f10x_i2c.o ABSOLUTE
    ..\Libraries\STM32F10x_StdPeriph_Driver\src\stm32f10x_iwdg.c 0x00000000   Number         0  stm32f10x_iwdg.o ABSOLUTE
    ..\Libraries\STM32F10x_StdPeriph_Driver\src\stm32f10x_pwr.c 0x00000000   Number         0  stm32f10x_pwr.o ABSOLUTE
    ..\Libraries\STM32F10x_StdPeriph_Driver\src\stm32f10x_rcc.c 0x00000000   Number         0  stm32f10x_rcc.o ABSOLUTE
    ..\Libraries\STM32F10x_StdPeriph_Driver\src\stm32f10x_rtc.c 0x00000000   Number         0  stm32f10x_rtc.o ABSOLUTE
    ..\Libraries\STM32F10x_StdPeriph_Driver\src\stm32f10x_sdio.c 0x00000000   Number         0  stm32f10x_sdio.o ABSOLUTE
    ..\Libraries\STM32F10x_StdPeriph_Driver\src\stm32f10x_spi.c 0x00000000   Number         0  stm32f10x_spi.o ABSOLUTE
    ..\Libraries\STM32F10x_StdPeriph_Driver\src\stm32f10x_tim.c 0x00000000   Number         0  stm32f10x_tim.o ABSOLUTE
    ..\Libraries\STM32F10x_StdPeriph_Driver\src\stm32f10x_usart.c 0x00000000   Number         0  stm32f10x_usart.o ABSOLUTE
    ..\Libraries\STM32F10x_StdPeriph_Driver\src\stm32f10x_wwdg.c 0x00000000   Number         0  stm32f10x_wwdg.o ABSOLUTE
    ..\\Hardware\\sys\\sys.c                 0x00000000   Number         0  sys.o ABSOLUTE
    ..\\Libraries\\CMSIS\\CM3\\CoreSupport\\core_cm3.c 0x00000000   Number         0  core_cm3.o ABSOLUTE
    dc.s                                     0x00000000   Number         0  dc.o ABSOLUTE
    main.c                                   0x00000000   Number         0  main.o ABSOLUTE
    stm32f10x_it.c                           0x00000000   Number         0  stm32f10x_it.o ABSOLUTE
    test.c                                   0x00000000   Number         0  test.o ABSOLUTE
    RESET                                    0x08000000   Section      236  startup_stm32f10x_md.o(RESET)
    !!!main                                  0x080000ec   Section        8  __main.o(!!!main)
    !!!scatter                               0x080000f4   Section       52  __scatter.o(!!!scatter)
    !!dclz77c                                0x08000128   Section      100  __dclz77c.o(!!dclz77c)
    !!handler_zi                             0x0800018c   Section       28  __scatter_zi.o(!!handler_zi)
    .ARM.Collect$$libinit$$00000000          0x080001a8   Section        2  libinit.o(.ARM.Collect$$libinit$$00000000)
    .ARM.Collect$$libinit$$00000002          0x080001aa   Section        0  libinit2.o(.ARM.Collect$$libinit$$00000002)
    .ARM.Collect$$libinit$$00000004          0x080001aa   Section        0  libinit2.o(.ARM.Collect$$libinit$$00000004)
    .ARM.Collect$$libinit$$00000005          0x080001aa   Section        8  libinit2.o(.ARM.Collect$$libinit$$00000005)
    .ARM.Collect$$libinit$$0000000A          0x080001b2   Section        0  libinit2.o(.ARM.Collect$$libinit$$0000000A)
    .ARM.Collect$$libinit$$0000000C          0x080001b2   Section        0  libinit2.o(.ARM.Collect$$libinit$$0000000C)
    .ARM.Collect$$libinit$$0000000E          0x080001b2   Section        0  libinit2.o(.ARM.Collect$$libinit$$0000000E)
    .ARM.Collect$$libinit$$00000011          0x080001b2   Section        0  libinit2.o(.ARM.Collect$$libinit$$00000011)
    .ARM.Collect$$libinit$$00000013          0x080001b2   Section        0  libinit2.o(.ARM.Collect$$libinit$$00000013)
    .ARM.Collect$$libinit$$00000015          0x080001b2   Section        0  libinit2.o(.ARM.Collect$$libinit$$00000015)
    .ARM.Collect$$libinit$$00000017          0x080001b2   Section        0  libinit2.o(.ARM.Collect$$libinit$$00000017)
    .ARM.Collect$$libinit$$00000019          0x080001b2   Section        0  libinit2.o(.ARM.Collect$$libinit$$00000019)
    .ARM.Collect$$libinit$$0000001B          0x080001b2   Section        0  libinit2.o(.ARM.Collect$$libinit$$0000001B)
    .ARM.Collect$$libinit$$0000001D          0x080001b2   Section        0  libinit2.o(.ARM.Collect$$libinit$$0000001D)
    .ARM.Collect$$libinit$$0000001F          0x080001b2   Section        0  libinit2.o(.ARM.Collect$$libinit$$0000001F)
    .ARM.Collect$$libinit$$00000021          0x080001b2   Section        0  libinit2.o(.ARM.Collect$$libinit$$00000021)
    .ARM.Collect$$libinit$$00000023          0x080001b2   Section        0  libinit2.o(.ARM.Collect$$libinit$$00000023)
    .ARM.Collect$$libinit$$00000025          0x080001b2   Section        0  libinit2.o(.ARM.Collect$$libinit$$00000025)
    .ARM.Collect$$libinit$$0000002C          0x080001b2   Section        0  libinit2.o(.ARM.Collect$$libinit$$0000002C)
    .ARM.Collect$$libinit$$0000002E          0x080001b2   Section        0  libinit2.o(.ARM.Collect$$libinit$$0000002E)
    .ARM.Collect$$libinit$$00000030          0x080001b2   Section        0  libinit2.o(.ARM.Collect$$libinit$$00000030)
    .ARM.Collect$$libinit$$00000032          0x080001b2   Section        0  libinit2.o(.ARM.Collect$$libinit$$00000032)
    .ARM.Collect$$libinit$$00000033          0x080001b2   Section        2  libinit2.o(.ARM.Collect$$libinit$$00000033)
    .ARM.Collect$$libshutdown$$00000000      0x080001b4   Section        2  libshutdown.o(.ARM.Collect$$libshutdown$$00000000)
    .ARM.Collect$$libshutdown$$00000002      0x080001b6   Section        0  libshutdown2.o(.ARM.Collect$$libshutdown$$00000002)
    .ARM.Collect$$libshutdown$$00000004      0x080001b6   Section        0  libshutdown2.o(.ARM.Collect$$libshutdown$$00000004)
    .ARM.Collect$$libshutdown$$00000006      0x080001b6   Section        0  libshutdown2.o(.ARM.Collect$$libshutdown$$00000006)
    .ARM.Collect$$libshutdown$$00000009      0x080001b6   Section        0  libshutdown2.o(.ARM.Collect$$libshutdown$$00000009)
    .ARM.Collect$$libshutdown$$0000000C      0x080001b6   Section        0  libshutdown2.o(.ARM.Collect$$libshutdown$$0000000C)
    .ARM.Collect$$libshutdown$$0000000E      0x080001b6   Section        0  libshutdown2.o(.ARM.Collect$$libshutdown$$0000000E)
    .ARM.Collect$$libshutdown$$00000011      0x080001b6   Section        0  libshutdown2.o(.ARM.Collect$$libshutdown$$00000011)
    .ARM.Collect$$libshutdown$$00000012      0x080001b6   Section        2  libshutdown2.o(.ARM.Collect$$libshutdown$$00000012)
    .ARM.Collect$$rtentry$$00000000          0x080001b8   Section        0  __rtentry.o(.ARM.Collect$$rtentry$$00000000)
    .ARM.Collect$$rtentry$$00000002          0x080001b8   Section        0  __rtentry2.o(.ARM.Collect$$rtentry$$00000002)
    .ARM.Collect$$rtentry$$00000004          0x080001b8   Section        6  __rtentry4.o(.ARM.Collect$$rtentry$$00000004)
    .ARM.Collect$$rtentry$$00000009          0x080001be   Section        0  __rtentry2.o(.ARM.Collect$$rtentry$$00000009)
    .ARM.Collect$$rtentry$$0000000A          0x080001be   Section        4  __rtentry2.o(.ARM.Collect$$rtentry$$0000000A)
    .ARM.Collect$$rtentry$$0000000C          0x080001c2   Section        0  __rtentry2.o(.ARM.Collect$$rtentry$$0000000C)
    .ARM.Collect$$rtentry$$0000000D          0x080001c2   Section        8  __rtentry2.o(.ARM.Collect$$rtentry$$0000000D)
    .ARM.Collect$$rtexit$$00000000           0x080001ca   Section        2  rtexit.o(.ARM.Collect$$rtexit$$00000000)
    .ARM.Collect$$rtexit$$00000002           0x080001cc   Section        0  rtexit2.o(.ARM.Collect$$rtexit$$00000002)
    .ARM.Collect$$rtexit$$00000003           0x080001cc   Section        4  rtexit2.o(.ARM.Collect$$rtexit$$00000003)
    .ARM.Collect$$rtexit$$00000004           0x080001d0   Section        6  rtexit2.o(.ARM.Collect$$rtexit$$00000004)
    .emb_text                                0x080001d8   Section        0  maybetermalloc1.o(.emb_text)
    .text                                    0x080001d8   Section       64  startup_stm32f10x_md.o(.text)
    .text                                    0x08000218   Section        8  rt_errno_addr_intlibspace.o(.text)
    .text                                    0x08000220   Section        0  calloc.o(.text)
    .text                                    0x08000248   Section        0  h1_alloc.o(.text)
    .text                                    0x080002a6   Section        0  h1_free.o(.text)
    .text                                    0x080002f4   Section        0  h1_realloc.o(.text)
    .text                                    0x080003ac   Section        0  strstr.o(.text)
    .text                                    0x080003d0   Section        0  strlen.o(.text)
    .text                                    0x0800040e   Section        0  strcat.o(.text)
    .text                                    0x08000426   Section      138  rt_memcpy_v6.o(.text)
    .text                                    0x080004b0   Section      132  rt_memmove_v6.o(.text)
    .text                                    0x08000534   Section        8  memcpy.o(.text)
    .text                                    0x0800053c   Section      100  rt_memcpy_w.o(.text)
    .text                                    0x080005a0   Section       16  aeabi_memset.o(.text)
    .text                                    0x080005b0   Section       68  rt_memclr.o(.text)
    .text                                    0x080005f4   Section       78  rt_memclr_w.o(.text)
    .text                                    0x08000642   Section        0  heapauxi.o(.text)
    .text                                    0x08000648   Section        8  libspace.o(.text)
    .text                                    0x08000650   Section        8  rt_heap_descriptor_intlibspace.o(.text)
    .text                                    0x08000658   Section        0  hguard.o(.text)
    .text                                    0x0800065c   Section        0  init_alloc.o(.text)
    .text                                    0x080006e6   Section        0  h1_init.o(.text)
    .text                                    0x080006f4   Section      122  rt_memmove_w.o(.text)
    .text                                    0x0800076e   Section        0  h1_extend.o(.text)
    .text                                    0x080007a2   Section        0  defsig_rtmem_outer.o(.text)
    .text                                    0x080007b0   Section        2  use_no_semi.o(.text)
    .text                                    0x080007b2   Section       74  sys_stackheap_outer.o(.text)
    .text                                    0x080007b2   Section        0  indicate_semi.o(.text)
    .text                                    0x080007fc   Section        0  exit.o(.text)
    .text                                    0x0800080e   Section        0  defsig_exit.o(.text)
    .text                                    0x08000818   Section        0  defsig_rtmem_inner.o(.text)
    .text                                    0x08000868   Section        0  sys_exit.o(.text)
    .text                                    0x08000874   Section        0  defsig_general.o(.text)
    .text                                    0x080008a6   Section        0  sys_wrch.o(.text)
    i.ADC_Cmd                                0x080008b4   Section        0  stm32f10x_adc.o(i.ADC_Cmd)
    i.ADC_DeInit                             0x080008cc   Section        0  stm32f10x_adc.o(i.ADC_DeInit)
    i.ADC_GetCalibrationStatus               0x08000928   Section        0  stm32f10x_adc.o(i.ADC_GetCalibrationStatus)
    i.ADC_GetConversionValue                 0x0800093c   Section        0  stm32f10x_adc.o(i.ADC_GetConversionValue)
    i.ADC_GetFlagStatus                      0x08000944   Section        0  stm32f10x_adc.o(i.ADC_GetFlagStatus)
    i.ADC_GetResetCalibrationStatus          0x08000956   Section        0  stm32f10x_adc.o(i.ADC_GetResetCalibrationStatus)
    i.ADC_Init                               0x0800096c   Section        0  stm32f10x_adc.o(i.ADC_Init)
    i.ADC_RegularChannelConfig               0x080009bc   Section        0  stm32f10x_adc.o(i.ADC_RegularChannelConfig)
    i.ADC_ResetCalibration                   0x08000a74   Section        0  stm32f10x_adc.o(i.ADC_ResetCalibration)
    i.ADC_SoftwareStartConvCmd               0x08000a7e   Section        0  stm32f10x_adc.o(i.ADC_SoftwareStartConvCmd)
    i.ADC_StartCalibration                   0x08000a94   Section        0  stm32f10x_adc.o(i.ADC_StartCalibration)
    i.BitStream_appendBytes                  0x08000a9e   Section        0  bitstream.o(i.BitStream_appendBytes)
    i.BitStream_appendNum                    0x08000ae8   Section        0  bitstream.o(i.BitStream_appendNum)
    i.BitStream_expand                       0x08000b2e   Section        0  bitstream.o(i.BitStream_expand)
    BitStream_expand                         0x08000b2f   Thumb Code    36  bitstream.o(i.BitStream_expand)
    i.BitStream_free                         0x08000b52   Section        0  bitstream.o(i.BitStream_free)
    i.BitStream_new                          0x08000b66   Section        0  bitstream.o(i.BitStream_new)
    i.BitStream_toByte                       0x08000b98   Section        0  bitstream.o(i.BitStream_toByte)
    i.BitStream_writeBytes                   0x08000c20   Section        0  bitstream.o(i.BitStream_writeBytes)
    BitStream_writeBytes                     0x08000c21   Thumb Code    52  bitstream.o(i.BitStream_writeBytes)
    i.BitStream_writeNum                     0x08000c54   Section        0  bitstream.o(i.BitStream_writeNum)
    BitStream_writeNum                       0x08000c55   Thumb Code    46  bitstream.o(i.BitStream_writeNum)
    i.BusFault_Handler                       0x08000c82   Section        0  stm32f10x_it.o(i.BusFault_Handler)
    i.CalulateCRC                            0x08000c86   Section        0  rc522.o(i.CalulateCRC)
    i.ClearBitMask                           0x08000cf2   Section        0  rc522.o(i.ClearBitMask)
    i.DMA1_Channel2_IRQHandler               0x08000d10   Section        0  ws2812.o(i.DMA1_Channel2_IRQHandler)
    i.DMA_ClearFlag                          0x08000d44   Section        0  stm32f10x_dma.o(i.DMA_ClearFlag)
    i.DMA_ClearITPendingBit                  0x08000d60   Section        0  stm32f10x_dma.o(i.DMA_ClearITPendingBit)
    i.DMA_Cmd                                0x08000d7c   Section        0  stm32f10x_dma.o(i.DMA_Cmd)
    i.DMA_DeInit                             0x08000d94   Section        0  stm32f10x_dma.o(i.DMA_DeInit)
    i.DMA_ITConfig                           0x08000ee0   Section        0  stm32f10x_dma.o(i.DMA_ITConfig)
    i.DMA_Init                               0x08000ef2   Section        0  stm32f10x_dma.o(i.DMA_Init)
    i.DMA_SetCurrDataCounter                 0x08000f2e   Section        0  stm32f10x_dma.o(i.DMA_SetCurrDataCounter)
    i.DebugMon_Handler                       0x08000f32   Section        0  stm32f10x_it.o(i.DebugMon_Handler)
    i.ESP8266_Init                           0x08000f34   Section        0  esp8266.o(i.ESP8266_Init)
    i.ESP8266_Send_Answer                    0x08000f44   Section        0  esp8266.o(i.ESP8266_Send_Answer)
    i.FrameFiller_next                       0x08000fac   Section        0  qrencode.o(i.FrameFiller_next)
    FrameFiller_next                         0x08000fad   Thumb Code   174  qrencode.o(i.FrameFiller_next)
    i.FrameFiller_set                        0x0800105a   Section        0  qrencode.o(i.FrameFiller_set)
    FrameFiller_set                          0x0800105b   Thumb Code    24  qrencode.o(i.FrameFiller_set)
    i.GPIO_Init                              0x08001072   Section        0  stm32f10x_gpio.o(i.GPIO_Init)
    i.GPIO_ReadInputDataBit                  0x08001188   Section        0  stm32f10x_gpio.o(i.GPIO_ReadInputDataBit)
    i.GPIO_ResetBits                         0x0800119a   Section        0  stm32f10x_gpio.o(i.GPIO_ResetBits)
    i.GPIO_SetBits                           0x0800119e   Section        0  stm32f10x_gpio.o(i.GPIO_SetBits)
    i.GPIO_WriteBit                          0x080011a2   Section        0  stm32f10x_gpio.o(i.GPIO_WriteBit)
    i.GRB_to_RGB                             0x080011ac   Section        0  ws2812.o(i.GRB_to_RGB)
    i.HardFault_Handler                      0x080011da   Section        0  stm32f10x_it.o(i.HardFault_Handler)
    i.HexToStr                               0x080011de   Section        0  commonfunction.o(i.HexToStr)
    i.I2C_Start                              0x08001268   Section        0  oled.o(i.I2C_Start)
    i.I2C_Stop                               0x0800129c   Section        0  oled.o(i.I2C_Stop)
    i.I2C_WaitAck                            0x080012c0   Section        0  oled.o(i.I2C_WaitAck)
    i.IIC_delay                              0x080012ec   Section        0  oled.o(i.IIC_delay)
    i.Key_Scan                               0x080012fc   Section        0  button.o(i.Key_Scan)
    i.M500PcdConfigISOType                   0x08001322   Section        0  rc522.o(i.M500PcdConfigISOType)
    i.MMask_evaluateSymbol                   0x0800137e   Section        0  mmask.o(i.MMask_evaluateSymbol)
    i.MMask_makeMask                         0x080013cc   Section        0  mmask.o(i.MMask_makeMask)
    i.MMask_mask                             0x0800142c   Section        0  mmask.o(i.MMask_mask)
    i.MMask_writeFormatInformation           0x080014bc   Section        0  mmask.o(i.MMask_writeFormatInformation)
    i.MQRraw_free                            0x0800151a   Section        0  qrencode.o(i.MQRraw_free)
    i.MQRraw_getCode                         0x0800153a   Section        0  qrencode.o(i.MQRraw_getCode)
    i.MQRraw_new                             0x08001572   Section        0  qrencode.o(i.MQRraw_new)
    i.MQRspec_createFrame                    0x08001610   Section        0  mqrspec.o(i.MQRspec_createFrame)
    MQRspec_createFrame                      0x08001611   Thumb Code   186  mqrspec.o(i.MQRspec_createFrame)
    i.MQRspec_getDataLength                  0x080016d0   Section        0  mqrspec.o(i.MQRspec_getDataLength)
    i.MQRspec_getDataLengthBit               0x080016ec   Section        0  mqrspec.o(i.MQRspec_getDataLengthBit)
    i.MQRspec_getECCLength                   0x08001724   Section        0  mqrspec.o(i.MQRspec_getECCLength)
    i.MQRspec_getFormatInfo                  0x0800173c   Section        0  mqrspec.o(i.MQRspec_getFormatInfo)
    i.MQRspec_getWidth                       0x0800178c   Section        0  mqrspec.o(i.MQRspec_getWidth)
    i.MQRspec_lengthIndicator                0x080017a0   Section        0  mqrspec.o(i.MQRspec_lengthIndicator)
    i.MQRspec_maximumWords                   0x080017b4   Section        0  mqrspec.o(i.MQRspec_maximumWords)
    i.MQRspec_newFrame                       0x080017d8   Section        0  mqrspec.o(i.MQRspec_newFrame)
    i.Mask_calcN1N3                          0x080017f0   Section        0  mask.o(i.Mask_calcN1N3)
    i.Mask_calcN2                            0x0800188c   Section        0  mask.o(i.Mask_calcN2)
    i.Mask_calcRunLengthH                    0x08001916   Section        0  mask.o(i.Mask_calcRunLengthH)
    i.Mask_calcRunLengthV                    0x08001966   Section        0  mask.o(i.Mask_calcRunLengthV)
    i.Mask_evaluateSymbol                    0x080019be   Section        0  mask.o(i.Mask_evaluateSymbol)
    i.Mask_makeMask                          0x08001a28   Section        0  mask.o(i.Mask_makeMask)
    i.Mask_mask                              0x08001a7c   Section        0  mask.o(i.Mask_mask)
    i.Mask_mask0                             0x08001b38   Section        0  mask.o(i.Mask_mask0)
    Mask_mask0                               0x08001b39   Thumb Code    70  mask.o(i.Mask_mask0)
    i.Mask_mask0                             0x08001b7e   Section        0  mmask.o(i.Mask_mask0)
    Mask_mask0                               0x08001b7f   Thumb Code    56  mmask.o(i.Mask_mask0)
    i.Mask_mask1                             0x08001bb6   Section        0  mask.o(i.Mask_mask1)
    Mask_mask1                               0x08001bb7   Thumb Code    68  mask.o(i.Mask_mask1)
    i.Mask_mask1                             0x08001bfa   Section        0  mmask.o(i.Mask_mask1)
    Mask_mask1                               0x08001bfb   Thumb Code    74  mmask.o(i.Mask_mask1)
    i.Mask_mask2                             0x08001c44   Section        0  mask.o(i.Mask_mask2)
    Mask_mask2                               0x08001c45   Thumb Code    78  mask.o(i.Mask_mask2)
    i.Mask_mask2                             0x08001c92   Section        0  mmask.o(i.Mask_mask2)
    Mask_mask2                               0x08001c93   Thumb Code    76  mmask.o(i.Mask_mask2)
    i.Mask_mask3                             0x08001cde   Section        0  mask.o(i.Mask_mask3)
    Mask_mask3                               0x08001cdf   Thumb Code    80  mask.o(i.Mask_mask3)
    i.Mask_mask3                             0x08001d2e   Section        0  mmask.o(i.Mask_mask3)
    Mask_mask3                               0x08001d2f   Thumb Code    76  mmask.o(i.Mask_mask3)
    i.Mask_mask4                             0x08001d7a   Section        0  mask.o(i.Mask_mask4)
    Mask_mask4                               0x08001d7b   Thumb Code    88  mask.o(i.Mask_mask4)
    i.Mask_mask5                             0x08001dd2   Section        0  mask.o(i.Mask_mask5)
    Mask_mask5                               0x08001dd3   Thumb Code    92  mask.o(i.Mask_mask5)
    i.Mask_mask6                             0x08001e2e   Section        0  mask.o(i.Mask_mask6)
    Mask_mask6                               0x08001e2f   Thumb Code    86  mask.o(i.Mask_mask6)
    i.Mask_mask7                             0x08001e84   Section        0  mask.o(i.Mask_mask7)
    Mask_mask7                               0x08001e85   Thumb Code    86  mask.o(i.Mask_mask7)
    i.Mask_writeFormatInformation            0x08001eda   Section        0  mask.o(i.Mask_writeFormatInformation)
    i.MemManage_Handler                      0x08001f76   Section        0  stm32f10x_it.o(i.MemManage_Handler)
    i.NMI_Handler                            0x08001f7a   Section        0  stm32f10x_it.o(i.NMI_Handler)
    i.NVIC_Init                              0x08001f7c   Section        0  misc.o(i.NVIC_Init)
    i.OLED_Clear                             0x08001fec   Section        0  oled.o(i.OLED_Clear)
    i.OLED_ColorTurn                         0x0800201c   Section        0  oled.o(i.OLED_ColorTurn)
    i.OLED_DisplayTurn                       0x08002038   Section        0  oled.o(i.OLED_DisplayTurn)
    i.OLED_DrawPoint                         0x08002064   Section        0  oled.o(i.OLED_DrawPoint)
    i.OLED_Init                              0x080020dc   Section        0  oled.o(i.OLED_Init)
    i.OLED_Refresh                           0x08002230   Section        0  oled.o(i.OLED_Refresh)
    i.OLED_ShowChar                          0x08002298   Section        0  oled.o(i.OLED_ShowChar)
    i.OLED_ShowString                        0x080023d4   Section        0  oled.o(i.OLED_ShowString)
    i.OLED_WR_Byte                           0x0800241e   Section        0  oled.o(i.OLED_WR_Byte)
    i.PcdAntennaOff                          0x08002456   Section        0  rc522.o(i.PcdAntennaOff)
    i.PcdAntennaOn                           0x08002462   Section        0  rc522.o(i.PcdAntennaOn)
    i.PcdAnticoll                            0x0800247c   Section        0  rc522.o(i.PcdAnticoll)
    i.PcdAuthState                           0x080024ec   Section        0  rc522.o(i.PcdAuthState)
    i.PcdComMF522                            0x0800255a   Section        0  rc522.o(i.PcdComMF522)
    i.PcdRead                                0x0800268c   Section        0  rc522.o(i.PcdRead)
    i.PcdRequest                             0x080026e0   Section        0  rc522.o(i.PcdRequest)
    i.PcdReset                               0x08002734   Section        0  rc522.o(i.PcdReset)
    i.PcdSelect                              0x080027ec   Section        0  rc522.o(i.PcdSelect)
    i.PendSV_Handler                         0x0800285e   Section        0  stm32f10x_it.o(i.PendSV_Handler)
    i.QRcode_encodeInput                     0x08002860   Section        0  qrencode.o(i.QRcode_encodeInput)
    i.QRcode_encodeMask                      0x08002880   Section        0  qrencode.o(i.QRcode_encodeMask)
    i.QRcode_encodeMaskMQR                   0x08002a40   Section        0  qrencode.o(i.QRcode_encodeMaskMQR)
    i.QRcode_encodeString                    0x08002c00   Section        0  qrencode.o(i.QRcode_encodeString)
    i.QRcode_encodeStringReal                0x08002c24   Section        0  qrencode.o(i.QRcode_encodeStringReal)
    QRcode_encodeStringReal                  0x08002c25   Thumb Code   132  qrencode.o(i.QRcode_encodeStringReal)
    i.QRcode_free                            0x08002ca8   Section        0  qrencode.o(i.QRcode_free)
    i.QRcode_new                             0x08002cbc   Section        0  qrencode.o(i.QRcode_new)
    i.QRinput_List_freeEntry                 0x08002ce0   Section        0  qrinput.o(i.QRinput_List_freeEntry)
    QRinput_List_freeEntry                   0x08002ce1   Thumb Code    26  qrinput.o(i.QRinput_List_freeEntry)
    i.QRinput_List_newEntry                  0x08002cfa   Section        0  qrinput.o(i.QRinput_List_newEntry)
    QRinput_List_newEntry                    0x08002cfb   Thumb Code   104  qrinput.o(i.QRinput_List_newEntry)
    i.QRinput_append                         0x08002d62   Section        0  qrinput.o(i.QRinput_append)
    i.QRinput_appendEntry                    0x08002d90   Section        0  qrinput.o(i.QRinput_appendEntry)
    QRinput_appendEntry                      0x08002d91   Thumb Code    22  qrinput.o(i.QRinput_appendEntry)
    i.QRinput_appendPaddingBit               0x08002da6   Section        0  qrinput.o(i.QRinput_appendPaddingBit)
    QRinput_appendPaddingBit                 0x08002da7   Thumb Code   170  qrinput.o(i.QRinput_appendPaddingBit)
    i.QRinput_appendPaddingBitMQR            0x08002e50   Section        0  qrinput.o(i.QRinput_appendPaddingBitMQR)
    QRinput_appendPaddingBitMQR              0x08002e51   Thumb Code   254  qrinput.o(i.QRinput_appendPaddingBitMQR)
    i.QRinput_check                          0x08002f4e   Section        0  qrinput.o(i.QRinput_check)
    i.QRinput_checkModeAn                    0x08002fbc   Section        0  qrinput.o(i.QRinput_checkModeAn)
    QRinput_checkModeAn                      0x08002fbd   Thumb Code    50  qrinput.o(i.QRinput_checkModeAn)
    i.QRinput_checkModeFNC1Second            0x08002ff4   Section        0  qrinput.o(i.QRinput_checkModeFNC1Second)
    QRinput_checkModeFNC1Second              0x08002ff5   Thumb Code    16  qrinput.o(i.QRinput_checkModeFNC1Second)
    i.QRinput_checkModeKanji                 0x08003004   Section        0  qrinput.o(i.QRinput_checkModeKanji)
    QRinput_checkModeKanji                   0x08003005   Thumb Code    80  qrinput.o(i.QRinput_checkModeKanji)
    i.QRinput_checkModeNum                   0x08003054   Section        0  qrinput.o(i.QRinput_checkModeNum)
    QRinput_checkModeNum                     0x08003055   Thumb Code    36  qrinput.o(i.QRinput_checkModeNum)
    i.QRinput_convertData                    0x08003078   Section        0  qrinput.o(i.QRinput_convertData)
    QRinput_convertData                      0x08003079   Thumb Code   112  qrinput.o(i.QRinput_convertData)
    i.QRinput_createBitStream                0x080030e8   Section        0  qrinput.o(i.QRinput_createBitStream)
    QRinput_createBitStream                  0x080030e9   Thumb Code    52  qrinput.o(i.QRinput_createBitStream)
    i.QRinput_decodeECIfromByteArray         0x0800311c   Section        0  qrinput.o(i.QRinput_decodeECIfromByteArray)
    QRinput_decodeECIfromByteArray           0x0800311d   Thumb Code    26  qrinput.o(i.QRinput_decodeECIfromByteArray)
    i.QRinput_encodeBitStream                0x08003136   Section        0  qrinput.o(i.QRinput_encodeBitStream)
    QRinput_encodeBitStream                  0x08003137   Thumb Code   332  qrinput.o(i.QRinput_encodeBitStream)
    i.QRinput_encodeMode8                    0x08003282   Section        0  qrinput.o(i.QRinput_encodeMode8)
    QRinput_encodeMode8                      0x08003283   Thumb Code   170  qrinput.o(i.QRinput_encodeMode8)
    i.QRinput_encodeModeAn                   0x0800332c   Section        0  qrinput.o(i.QRinput_encodeModeAn)
    QRinput_encodeModeAn                     0x0800332d   Thumb Code   326  qrinput.o(i.QRinput_encodeModeAn)
    i.QRinput_encodeModeECI                  0x08003478   Section        0  qrinput.o(i.QRinput_encodeModeECI)
    QRinput_encodeModeECI                    0x08003479   Thumb Code    98  qrinput.o(i.QRinput_encodeModeECI)
    i.QRinput_encodeModeFNC1Second           0x080034da   Section        0  qrinput.o(i.QRinput_encodeModeFNC1Second)
    QRinput_encodeModeFNC1Second             0x080034db   Thumb Code    54  qrinput.o(i.QRinput_encodeModeFNC1Second)
    i.QRinput_encodeModeKanji                0x08003510   Section        0  qrinput.o(i.QRinput_encodeModeKanji)
    QRinput_encodeModeKanji                  0x08003511   Thumb Code   240  qrinput.o(i.QRinput_encodeModeKanji)
    i.QRinput_encodeModeNum                  0x08003600   Section        0  qrinput.o(i.QRinput_encodeModeNum)
    QRinput_encodeModeNum                    0x08003601   Thumb Code   342  qrinput.o(i.QRinput_encodeModeNum)
    i.QRinput_encodeModeStructure            0x08003756   Section        0  qrinput.o(i.QRinput_encodeModeStructure)
    QRinput_encodeModeStructure              0x08003757   Thumb Code   128  qrinput.o(i.QRinput_encodeModeStructure)
    i.QRinput_estimateBitStreamSize          0x080037d6   Section        0  qrinput.o(i.QRinput_estimateBitStreamSize)
    i.QRinput_estimateBitStreamSizeOfEntry   0x080037fc   Section        0  qrinput.o(i.QRinput_estimateBitStreamSizeOfEntry)
    QRinput_estimateBitStreamSizeOfEntry     0x080037fd   Thumb Code   196  qrinput.o(i.QRinput_estimateBitStreamSizeOfEntry)
    i.QRinput_estimateBitsMode8              0x080038c0   Section        0  qrinput.o(i.QRinput_estimateBitsMode8)
    i.QRinput_estimateBitsModeAn             0x080038c6   Section        0  qrinput.o(i.QRinput_estimateBitsModeAn)
    i.QRinput_estimateBitsModeECI            0x080038e2   Section        0  qrinput.o(i.QRinput_estimateBitsModeECI)
    QRinput_estimateBitsModeECI              0x080038e3   Thumb Code    34  qrinput.o(i.QRinput_estimateBitsModeECI)
    i.QRinput_estimateBitsModeKanji          0x08003904   Section        0  qrinput.o(i.QRinput_estimateBitsModeKanji)
    i.QRinput_estimateBitsModeNum            0x08003916   Section        0  qrinput.o(i.QRinput_estimateBitsModeNum)
    i.QRinput_estimateVersion                0x08003942   Section        0  qrinput.o(i.QRinput_estimateVersion)
    i.QRinput_free                           0x08003980   Section        0  qrinput.o(i.QRinput_free)
    i.QRinput_getBitStream                   0x080039a0   Section        0  qrinput.o(i.QRinput_getBitStream)
    i.QRinput_getByteStream                  0x080039e2   Section        0  qrinput.o(i.QRinput_getByteStream)
    i.QRinput_getVersion                     0x08003a20   Section        0  qrinput.o(i.QRinput_getVersion)
    i.QRinput_insertFNC1Header               0x08003a26   Section        0  qrinput.o(i.QRinput_insertFNC1Header)
    QRinput_insertFNC1Header                 0x08003a27   Thumb Code    92  qrinput.o(i.QRinput_insertFNC1Header)
    i.QRinput_isSplittableMode               0x08003a82   Section        0  qrinput.o(i.QRinput_isSplittableMode)
    i.QRinput_mergeBitStream                 0x08003a94   Section        0  qrinput.o(i.QRinput_mergeBitStream)
    i.QRinput_new2                           0x08003ada   Section        0  qrinput.o(i.QRinput_new2)
    i.QRinput_newMQR                         0x08003b1c   Section        0  qrinput.o(i.QRinput_newMQR)
    i.QRinput_setVersion                     0x08003b5c   Section        0  qrinput.o(i.QRinput_setVersion)
    i.QRraw_free                             0x08003b80   Section        0  qrencode.o(i.QRraw_free)
    i.QRraw_getCode                          0x08003ba0   Section        0  qrencode.o(i.QRraw_getCode)
    i.QRraw_new                              0x08003c1a   Section        0  qrencode.o(i.QRraw_new)
    i.QRspec_createFrame                     0x08003cd4   Section        0  qrspec.o(i.QRspec_createFrame)
    QRspec_createFrame                       0x08003cd5   Thumb Code   452  qrspec.o(i.QRspec_createFrame)
    i.QRspec_getDataLength                   0x08003e9c   Section        0  qrspec.o(i.QRspec_getDataLength)
    i.QRspec_getECCLength                    0x08003ec4   Section        0  qrspec.o(i.QRspec_getECCLength)
    i.QRspec_getEccSpec                      0x08003edc   Section        0  qrspec.o(i.QRspec_getEccSpec)
    i.QRspec_getFormatInfo                   0x08003f4c   Section        0  qrspec.o(i.QRspec_getFormatInfo)
    i.QRspec_getMinimumVersion               0x08003f6c   Section        0  qrspec.o(i.QRspec_getMinimumVersion)
    i.QRspec_getRemainder                    0x08003fac   Section        0  qrspec.o(i.QRspec_getRemainder)
    i.QRspec_getVersionPattern               0x08003fc0   Section        0  qrspec.o(i.QRspec_getVersionPattern)
    i.QRspec_getWidth                        0x08003fdc   Section        0  qrspec.o(i.QRspec_getWidth)
    i.QRspec_lengthIndicator                 0x08003ff0   Section        0  qrspec.o(i.QRspec_lengthIndicator)
    i.QRspec_maximumWords                    0x08004028   Section        0  qrspec.o(i.QRspec_maximumWords)
    i.QRspec_newFrame                        0x08004074   Section        0  qrspec.o(i.QRspec_newFrame)
    i.QRspec_putAlignmentMarker              0x0800408c   Section        0  qrspec.o(i.QRspec_putAlignmentMarker)
    QRspec_putAlignmentMarker                0x0800408d   Thumb Code    46  qrspec.o(i.QRspec_putAlignmentMarker)
    i.QRspec_putAlignmentPattern             0x080040c0   Section        0  qrspec.o(i.QRspec_putAlignmentPattern)
    QRspec_putAlignmentPattern               0x080040c1   Thumb Code   194  qrspec.o(i.QRspec_putAlignmentPattern)
    i.RC522_Init                             0x08004188   Section        0  rc522.o(i.RC522_Init)
    i.RC522_System_Init                      0x08004264   Section        0  main.o(i.RC522_System_Init)
    i.RCC_AHBPeriphClockCmd                  0x080042fc   Section        0  stm32f10x_rcc.o(i.RCC_AHBPeriphClockCmd)
    i.RCC_APB1PeriphResetCmd                 0x0800431c   Section        0  stm32f10x_rcc.o(i.RCC_APB1PeriphResetCmd)
    i.RCC_APB2PeriphClockCmd                 0x0800433c   Section        0  stm32f10x_rcc.o(i.RCC_APB2PeriphClockCmd)
    i.RCC_APB2PeriphResetCmd                 0x0800435c   Section        0  stm32f10x_rcc.o(i.RCC_APB2PeriphResetCmd)
    i.RCC_GetClocksFreq                      0x0800437c   Section        0  stm32f10x_rcc.o(i.RCC_GetClocksFreq)
    i.RSECC_encode                           0x08004450   Section        0  rsecc.o(i.RSECC_encode)
    i.RSECC_init                             0x08004520   Section        0  rsecc.o(i.RSECC_init)
    RSECC_init                               0x08004521   Thumb Code    22  rsecc.o(i.RSECC_init)
    i.RSECC_initLookupTable                  0x08004540   Section        0  rsecc.o(i.RSECC_initLookupTable)
    RSECC_initLookupTable                    0x08004541   Thumb Code    52  rsecc.o(i.RSECC_initLookupTable)
    i.RSblock_init                           0x0800457c   Section        0  qrencode.o(i.RSblock_init)
    RSblock_init                             0x0800457d   Thumb Code   114  qrencode.o(i.RSblock_init)
    i.RSblock_initBlock                      0x080045ee   Section        0  qrencode.o(i.RSblock_initBlock)
    RSblock_initBlock                        0x080045ef   Thumb Code    42  qrencode.o(i.RSblock_initBlock)
    i.ReadRawRC                              0x08004618   Section        0  rc522.o(i.ReadRawRC)
    i.SVC_Handler                            0x080046b4   Section        0  stm32f10x_it.o(i.SVC_Handler)
    i.Send_Byte                              0x080046b8   Section        0  oled.o(i.Send_Byte)
    i.SetBitMask                             0x08004704   Section        0  rc522.o(i.SetBitMask)
    i.SetSysClock                            0x08004720   Section        0  system_stm32f10x.o(i.SetSysClock)
    SetSysClock                              0x08004721   Thumb Code     8  system_stm32f10x.o(i.SetSysClock)
    i.SetSysClockTo72                        0x08004728   Section        0  system_stm32f10x.o(i.SetSysClockTo72)
    SetSysClockTo72                          0x08004729   Thumb Code   214  system_stm32f10x.o(i.SetSysClockTo72)
    i.Split_eat8                             0x08004808   Section        0  split.o(i.Split_eat8)
    Split_eat8                               0x08004809   Thumb Code   320  split.o(i.Split_eat8)
    i.Split_eatAn                            0x0800494c   Section        0  split.o(i.Split_eatAn)
    Split_eatAn                              0x0800494d   Thumb Code   286  split.o(i.Split_eatAn)
    i.Split_eatKanji                         0x08004a70   Section        0  split.o(i.Split_eatKanji)
    Split_eatKanji                           0x08004a71   Thumb Code    60  split.o(i.Split_eatKanji)
    i.Split_eatNum                           0x08004aac   Section        0  split.o(i.Split_eatNum)
    Split_eatNum                             0x08004aad   Thumb Code   192  split.o(i.Split_eatNum)
    i.Split_identifyMode                     0x08004b6c   Section        0  split.o(i.Split_identifyMode)
    Split_identifyMode                       0x08004b6d   Thumb Code   106  split.o(i.Split_identifyMode)
    i.Split_splitString                      0x08004bdc   Section        0  split.o(i.Split_splitString)
    Split_splitString                        0x08004bdd   Thumb Code   120  split.o(i.Split_splitString)
    i.Split_splitStringToQRinput             0x08004c54   Section        0  split.o(i.Split_splitStringToQRinput)
    i.SysTick_CLKSourceConfig                0x08004cac   Section        0  misc.o(i.SysTick_CLKSourceConfig)
    i.SysTick_Handler                        0x08004cd4   Section        0  stm32f10x_it.o(i.SysTick_Handler)
    i.SystemInit                             0x08004cd8   Section        0  system_stm32f10x.o(i.SystemInit)
    i.TIM_ARRPreloadConfig                   0x08004d38   Section        0  stm32f10x_tim.o(i.TIM_ARRPreloadConfig)
    i.TIM_Cmd                                0x08004d50   Section        0  stm32f10x_tim.o(i.TIM_Cmd)
    i.TIM_CtrlPWMOutputs                     0x08004d68   Section        0  stm32f10x_tim.o(i.TIM_CtrlPWMOutputs)
    i.TIM_DMACmd                             0x08004d86   Section        0  stm32f10x_tim.o(i.TIM_DMACmd)
    i.TIM_DeInit                             0x08004d98   Section        0  stm32f10x_tim.o(i.TIM_DeInit)
    i.TIM_OC1Init                            0x08004f80   Section        0  stm32f10x_tim.o(i.TIM_OC1Init)
    i.TIM_OC1PreloadConfig                   0x08005018   Section        0  stm32f10x_tim.o(i.TIM_OC1PreloadConfig)
    i.TIM_TimeBaseInit                       0x0800502c   Section        0  stm32f10x_tim.o(i.TIM_TimeBaseInit)
    i.USART1_IRQHandler                      0x080050d0   Section        0  esp8266.o(i.USART1_IRQHandler)
    i.USART1_Send_Data                       0x08005114   Section        0  esp8266.o(i.USART1_Send_Data)
    i.USART_Cmd                              0x08005144   Section        0  stm32f10x_usart.o(i.USART_Cmd)
    i.USART_GetFlagStatus                    0x0800515c   Section        0  stm32f10x_usart.o(i.USART_GetFlagStatus)
    i.USART_GetITStatus                      0x08005176   Section        0  stm32f10x_usart.o(i.USART_GetITStatus)
    i.USART_ITConfig                         0x080051ca   Section        0  stm32f10x_usart.o(i.USART_ITConfig)
    i.USART_Init                             0x08005214   Section        0  stm32f10x_usart.o(i.USART_Init)
    i.USART_SendData                         0x080052ec   Section        0  stm32f10x_usart.o(i.USART_SendData)
    i.Uart1_Init                             0x080052f4   Section        0  esp8266.o(i.Uart1_Init)
    i.UsageFault_Handler                     0x080053d0   Section        0  stm32f10x_it.o(i.UsageFault_Handler)
    i.WaitCardOff                            0x080053d4   Section        0  rc522.o(i.WaitCardOff)
    i.Wheel                                  0x08005406   Section        0  ws2812.o(i.Wheel)
    i.WriteRawRC                             0x08005460   Section        0  rc522.o(i.WriteRawRC)
    i.beepInit                               0x08005508   Section        0  beep.o(i.beepInit)
    i.beepOneSecOn                           0x0800553c   Section        0  beep.o(i.beepOneSecOn)
    i.beepState                              0x08005554   Section        0  beep.o(i.beepState)
    i.buttonInit                             0x08005568   Section        0  button.o(i.buttonInit)
    i.delay_10ms                             0x08005592   Section        0  rc522.o(i.delay_10ms)
    i.delay_init                             0x080055ac   Section        0  delay.o(i.delay_init)
    i.delay_ms                               0x080055f0   Section        0  delay.o(i.delay_ms)
    i.dupAndToUpper                          0x0800563c   Section        0  split.o(i.dupAndToUpper)
    dupAndToUpper                            0x0800563d   Thumb Code    76  split.o(i.dupAndToUpper)
    i.genRandCode                            0x08005688   Section        0  main.o(i.genRandCode)
    i.generator_init                         0x0800574c   Section        0  rsecc.o(i.generator_init)
    generator_init                           0x0800574d   Thumb Code   140  rsecc.o(i.generator_init)
    i.getRND                                 0x080057e8   Section        0  rand.o(i.getRND)
    i.initRND                                0x08005860   Section        0  rand.o(i.initRND)
    i.main                                   0x080058fc   Section        0  main.o(i.main)
    i.putFinderPattern                       0x080062a8   Section        0  mqrspec.o(i.putFinderPattern)
    putFinderPattern                         0x080062a9   Thumb Code    42  mqrspec.o(i.putFinderPattern)
    i.putFinderPattern                       0x080062d8   Section        0  qrspec.o(i.putFinderPattern)
    putFinderPattern                         0x080062d9   Thumb Code    42  qrspec.o(i.putFinderPattern)
    i.rainbowCycle                           0x08006308   Section        0  ws2812.o(i.rainbowCycle)
    i.relay_init                             0x08006350   Section        0  relay.o(i.relay_init)
    i.relay_off                              0x0800637c   Section        0  relay.o(i.relay_off)
    i.relay_on                               0x0800638c   Section        0  relay.o(i.relay_on)
    i.setvalue                               0x0800639c   Section        0  ws2812.o(i.setvalue)
    i.strdup                                 0x080063be   Section        0  split.o(i.strdup)
    i.ws2812bClearAll                        0x080063e4   Section        0  ws2812.o(i.ws2812bClearAll)
    i.ws2812bInit                            0x08006420   Section        0  ws2812.o(i.ws2812bInit)
    i.ws2812bSend                            0x0800654c   Section        0  ws2812.o(i.ws2812bSend)
    ws2812bSend                              0x0800654d   Thumb Code    38  ws2812.o(i.ws2812bSend)
    i.ws2812bSet                             0x0800657c   Section        0  ws2812.o(i.ws2812bSet)
    i.ws2812bSetAll                          0x0800661c   Section        0  ws2812.o(i.ws2812bSetAll)
    .constdata                               0x0800662a   Section     7696  oled.o(.constdata)
    .constdata                               0x0800843c   Section       32  esp8266.o(.constdata)
    .constdata                               0x0800845c   Section      401  mqrspec.o(.constdata)
    mqrspecCapacity                          0x0800845c   Data         100  mqrspec.o(.constdata)
    lengthTableBits                          0x080084c0   Data          64  mqrspec.o(.constdata)
    formatInfo                               0x08008500   Data         128  mqrspec.o(.constdata)
    typeTable                                0x08008580   Data          60  mqrspec.o(.constdata)
    finder                                   0x080085bc   Data          49  mqrspec.o(.constdata)
    .constdata                               0x080085ed   Section      128  qrinput.o(.constdata)
    .constdata                               0x08008670   Section     3174  qrspec.o(.constdata)
    qrspecCapacity                           0x08008670   Data        1148  qrspec.o(.constdata)
    lengthTableBits                          0x08008aec   Data          48  qrspec.o(.constdata)
    eccTable                                 0x08008b1c   Data        1312  qrspec.o(.constdata)
    alignmentPattern                         0x0800903c   Data         328  qrspec.o(.constdata)
    versionPattern                           0x08009184   Data         136  qrspec.o(.constdata)
    formatInfo                               0x0800920c   Data         128  qrspec.o(.constdata)
    finder                                   0x0800928c   Data          25  qrspec.o(.constdata)
    finder                                   0x080092a5   Data          49  qrspec.o(.constdata)
    .data                                    0x20000000   Section       20  system_stm32f10x.o(.data)
    .data                                    0x20000014   Section       20  stm32f10x_rcc.o(.data)
    APBAHBPrescTable                         0x20000014   Data          16  stm32f10x_rcc.o(.data)
    ADCPrescTable                            0x20000024   Data           4  stm32f10x_rcc.o(.data)
    .data                                    0x20000028   Section     2116  main.o(.data)
    .data                                    0x2000086c   Section        4  delay.o(.data)
    fac_us                                   0x2000086c   Data           1  delay.o(.data)
    fac_ms                                   0x2000086e   Data           2  delay.o(.data)
    .data                                    0x20000870   Section        2  esp8266.o(.data)
    .data                                    0x20000872   Section       10  ws2812.o(.data)
    isInited                                 0x20000872   Data           1  ws2812.o(.data)
    GPIO_InitStruct                          0x20000874   Data           4  ws2812.o(.data)
    NVIC_InitStructure                       0x20000878   Data           4  ws2812.o(.data)
    .data                                    0x2000087c   Section        1  rand.o(.data)
    isInitRND                                0x2000087c   Data           1  rand.o(.data)
    .data                                    0x20000880   Section       32  mask.o(.data)
    maskMakers                               0x20000880   Data          32  mask.o(.data)
    .data                                    0x200008a0   Section       16  mmask.o(.data)
    maskMakers                               0x200008a0   Data          16  mmask.o(.data)
    .data                                    0x200008b0   Section        4  rsecc.o(.data)
    initialized                              0x200008b0   Data           4  rsecc.o(.data)
    .bss                                     0x200008b4   Section     1152  oled.o(.bss)
    .bss                                     0x20000d34   Section      128  esp8266.o(.bss)
    .bss                                     0x20000db4   Section      540  ws2812.o(.bss)
    ws2812bBuff                              0x20000db4   Data         470  ws2812.o(.bss)
    TIM_TimeBaseStruct                       0x20000f8a   Data          10  ws2812.o(.bss)
    TIM_OCInitStruct                         0x20000f94   Data          16  ws2812.o(.bss)
    DMA_InitStruct                           0x20000fa4   Data          44  ws2812.o(.bss)
    .bss                                     0x20000fd0   Section     1440  rsecc.o(.bss)
    alpha                                    0x20000fd0   Data         256  rsecc.o(.bss)
    aindex                                   0x200010d0   Data         256  rsecc.o(.bss)
    generator                                0x200011d0   Data         899  rsecc.o(.bss)
    generatorInitialized                     0x20001553   Data          29  rsecc.o(.bss)
    .bss                                     0x20001570   Section       96  libspace.o(.bss)
    HEAP                                     0x200015d0   Section     4096  startup_stm32f10x_md.o(HEAP)
    Heap_Mem                                 0x200015d0   Data        4096  startup_stm32f10x_md.o(HEAP)
    STACK                                    0x200025d0   Section     8192  startup_stm32f10x_md.o(STACK)
    Stack_Mem                                0x200025d0   Data        8192  startup_stm32f10x_md.o(STACK)
    __initial_sp                             0x200045d0   Data           0  startup_stm32f10x_md.o(STACK)

    Global Symbols

    Symbol Name                              Value     Ov Type        Size  Object(Section)

    BuildAttributes$$THM_ISAv4$P$D$K$B$S$PE$A:L22UL41UL21$X:L11$S22US41US21$IEEE1$IW$USESV6$~STKCKD$USESV7$~SHL$OTIME$ROPI$EBA8$UX$STANDARDLIB$REQ8$PRES8$EABIv2 0x00000000   Number         0  anon$$obj.o ABSOLUTE
    __ARM_use_no_argv                        0x00000000   Number         0  main.o ABSOLUTE
    __ARM_exceptions_init                     - Undefined Weak Reference
    __alloca_initialize                       - Undefined Weak Reference
    __arm_fini_                               - Undefined Weak Reference
    __arm_preinit_                            - Undefined Weak Reference
    __cpp_initialize__aeabi_                  - Undefined Weak Reference
    __cxa_finalize                            - Undefined Weak Reference
    __rt_locale                               - Undefined Weak Reference
    __sigvec_lookup                           - Undefined Weak Reference
    __user_heap_extent                        - Undefined Weak Reference
    _atexit_init                              - Undefined Weak Reference
    _call_atexit_fns                          - Undefined Weak Reference
    _clock_init                               - Undefined Weak Reference
    _fp_trap_init                             - Undefined Weak Reference
    _fp_trap_shutdown                         - Undefined Weak Reference
    _get_lc_collate                           - Undefined Weak Reference
    _get_lc_ctype                             - Undefined Weak Reference
    _get_lc_monetary                          - Undefined Weak Reference
    _get_lc_numeric                           - Undefined Weak Reference
    _get_lc_time                              - Undefined Weak Reference
    _getenv_init                              - Undefined Weak Reference
    _handle_redirection                       - Undefined Weak Reference
    _initio                                   - Undefined Weak Reference
    _mutex_acquire                            - Undefined Weak Reference
    _mutex_free                               - Undefined Weak Reference
    _mutex_release                            - Undefined Weak Reference
    _rand_init                                - Undefined Weak Reference
    _signal_finish                            - Undefined Weak Reference
    _signal_init                              - Undefined Weak Reference
    _terminateio                              - Undefined Weak Reference
    __Vectors_Size                           0x000000ec   Number         0  startup_stm32f10x_md.o ABSOLUTE
    __Vectors                                0x08000000   Data           4  startup_stm32f10x_md.o(RESET)
    __Vectors_End                            0x080000ec   Data           0  startup_stm32f10x_md.o(RESET)
    __main                                   0x080000ed   Thumb Code     8  __main.o(!!!main)
    __scatterload                            0x080000f5   Thumb Code     0  __scatter.o(!!!scatter)
    __scatterload_rt2                        0x080000f5   Thumb Code    44  __scatter.o(!!!scatter)
    __scatterload_rt2_thumb_only             0x080000f5   Thumb Code     0  __scatter.o(!!!scatter)
    __scatterload_null                       0x08000103   Thumb Code     0  __scatter.o(!!!scatter)
    __decompress                             0x08000129   Thumb Code   100  __dclz77c.o(!!dclz77c)
    __decompress2                            0x08000129   Thumb Code     0  __dclz77c.o(!!dclz77c)
    __scatterload_zeroinit                   0x0800018d   Thumb Code    28  __scatter_zi.o(!!handler_zi)
    __rt_lib_init                            0x080001a9   Thumb Code     0  libinit.o(.ARM.Collect$$libinit$$00000000)
    __rt_lib_init_fp_1                       0x080001ab   Thumb Code     0  libinit2.o(.ARM.Collect$$libinit$$00000002)
    __rt_lib_init_heap_2                     0x080001ab   Thumb Code     0  libinit2.o(.ARM.Collect$$libinit$$00000005)
    __rt_lib_init_preinit_1                  0x080001ab   Thumb Code     0  libinit2.o(.ARM.Collect$$libinit$$00000004)
    __rt_lib_init_alloca_1                   0x080001b3   Thumb Code     0  libinit2.o(.ARM.Collect$$libinit$$0000002E)
    __rt_lib_init_argv_1                     0x080001b3   Thumb Code     0  libinit2.o(.ARM.Collect$$libinit$$0000002C)
    __rt_lib_init_atexit_1                   0x080001b3   Thumb Code     0  libinit2.o(.ARM.Collect$$libinit$$0000001B)
    __rt_lib_init_clock_1                    0x080001b3   Thumb Code     0  libinit2.o(.ARM.Collect$$libinit$$00000021)
    __rt_lib_init_cpp_1                      0x080001b3   Thumb Code     0  libinit2.o(.ARM.Collect$$libinit$$00000032)
    __rt_lib_init_exceptions_1               0x080001b3   Thumb Code     0  libinit2.o(.ARM.Collect$$libinit$$00000030)
    __rt_lib_init_fp_trap_1                  0x080001b3   Thumb Code     0  libinit2.o(.ARM.Collect$$libinit$$0000001F)
    __rt_lib_init_getenv_1                   0x080001b3   Thumb Code     0  libinit2.o(.ARM.Collect$$libinit$$00000023)
    __rt_lib_init_heap_1                     0x080001b3   Thumb Code     0  libinit2.o(.ARM.Collect$$libinit$$0000000A)
    __rt_lib_init_lc_collate_1               0x080001b3   Thumb Code     0  libinit2.o(.ARM.Collect$$libinit$$00000011)
    __rt_lib_init_lc_ctype_1                 0x080001b3   Thumb Code     0  libinit2.o(.ARM.Collect$$libinit$$00000013)
    __rt_lib_init_lc_monetary_1              0x080001b3   Thumb Code     0  libinit2.o(.ARM.Collect$$libinit$$00000015)
    __rt_lib_init_lc_numeric_1               0x080001b3   Thumb Code     0  libinit2.o(.ARM.Collect$$libinit$$00000017)
    __rt_lib_init_lc_time_1                  0x080001b3   Thumb Code     0  libinit2.o(.ARM.Collect$$libinit$$00000019)
    __rt_lib_init_rand_1                     0x080001b3   Thumb Code     0  libinit2.o(.ARM.Collect$$libinit$$0000000E)
    __rt_lib_init_return                     0x080001b3   Thumb Code     0  libinit2.o(.ARM.Collect$$libinit$$00000033)
    __rt_lib_init_signal_1                   0x080001b3   Thumb Code     0  libinit2.o(.ARM.Collect$$libinit$$0000001D)
    __rt_lib_init_stdio_1                    0x080001b3   Thumb Code     0  libinit2.o(.ARM.Collect$$libinit$$00000025)
    __rt_lib_init_user_alloc_1               0x080001b3   Thumb Code     0  libinit2.o(.ARM.Collect$$libinit$$0000000C)
    __rt_lib_shutdown                        0x080001b5   Thumb Code     0  libshutdown.o(.ARM.Collect$$libshutdown$$00000000)
    __rt_lib_shutdown_cpp_1                  0x080001b7   Thumb Code     0  libshutdown2.o(.ARM.Collect$$libshutdown$$00000004)
    __rt_lib_shutdown_fini_1                 0x080001b7   Thumb Code     0  libshutdown2.o(.ARM.Collect$$libshutdown$$00000002)
    __rt_lib_shutdown_fp_trap_1              0x080001b7   Thumb Code     0  libshutdown2.o(.ARM.Collect$$libshutdown$$00000009)
    __rt_lib_shutdown_heap_1                 0x080001b7   Thumb Code     0  libshutdown2.o(.ARM.Collect$$libshutdown$$00000011)
    __rt_lib_shutdown_return                 0x080001b7   Thumb Code     0  libshutdown2.o(.ARM.Collect$$libshutdown$$00000012)
    __rt_lib_shutdown_signal_1               0x080001b7   Thumb Code     0  libshutdown2.o(.ARM.Collect$$libshutdown$$0000000C)
    __rt_lib_shutdown_stdio_1                0x080001b7   Thumb Code     0  libshutdown2.o(.ARM.Collect$$libshutdown$$00000006)
    __rt_lib_shutdown_user_alloc_1           0x080001b7   Thumb Code     0  libshutdown2.o(.ARM.Collect$$libshutdown$$0000000E)
    __rt_entry                               0x080001b9   Thumb Code     0  __rtentry.o(.ARM.Collect$$rtentry$$00000000)
    __rt_entry_presh_1                       0x080001b9   Thumb Code     0  __rtentry2.o(.ARM.Collect$$rtentry$$00000002)
    __rt_entry_sh                            0x080001b9   Thumb Code     0  __rtentry4.o(.ARM.Collect$$rtentry$$00000004)
    __rt_entry_li                            0x080001bf   Thumb Code     0  __rtentry2.o(.ARM.Collect$$rtentry$$0000000A)
    __rt_entry_postsh_1                      0x080001bf   Thumb Code     0  __rtentry2.o(.ARM.Collect$$rtentry$$00000009)
    __rt_entry_main                          0x080001c3   Thumb Code     0  __rtentry2.o(.ARM.Collect$$rtentry$$0000000D)
    __rt_entry_postli_1                      0x080001c3   Thumb Code     0  __rtentry2.o(.ARM.Collect$$rtentry$$0000000C)
    __rt_exit                                0x080001cb   Thumb Code     0  rtexit.o(.ARM.Collect$$rtexit$$00000000)
    __rt_exit_ls                             0x080001cd   Thumb Code     0  rtexit2.o(.ARM.Collect$$rtexit$$00000003)
    __rt_exit_prels_1                        0x080001cd   Thumb Code     0  rtexit2.o(.ARM.Collect$$rtexit$$00000002)
    __rt_exit_exit                           0x080001d1   Thumb Code     0  rtexit2.o(.ARM.Collect$$rtexit$$00000004)
    Reset_Handler                            0x080001d9   Thumb Code     8  startup_stm32f10x_md.o(.text)
    _maybe_terminate_alloc                   0x080001d9   Thumb Code     0  maybetermalloc1.o(.emb_text)
    ADC1_2_IRQHandler                        0x080001f3   Thumb Code     0  startup_stm32f10x_md.o(.text)
    CAN1_RX1_IRQHandler                      0x080001f3   Thumb Code     0  startup_stm32f10x_md.o(.text)
    CAN1_SCE_IRQHandler                      0x080001f3   Thumb Code     0  startup_stm32f10x_md.o(.text)
    DMA1_Channel1_IRQHandler                 0x080001f3   Thumb Code     0  startup_stm32f10x_md.o(.text)
    DMA1_Channel3_IRQHandler                 0x080001f3   Thumb Code     0  startup_stm32f10x_md.o(.text)
    DMA1_Channel4_IRQHandler                 0x080001f3   Thumb Code     0  startup_stm32f10x_md.o(.text)
    DMA1_Channel5_IRQHandler                 0x080001f3   Thumb Code     0  startup_stm32f10x_md.o(.text)
    DMA1_Channel6_IRQHandler                 0x080001f3   Thumb Code     0  startup_stm32f10x_md.o(.text)
    DMA1_Channel7_IRQHandler                 0x080001f3   Thumb Code     0  startup_stm32f10x_md.o(.text)
    EXTI0_IRQHandler                         0x080001f3   Thumb Code     0  startup_stm32f10x_md.o(.text)
    EXTI15_10_IRQHandler                     0x080001f3   Thumb Code     0  startup_stm32f10x_md.o(.text)
    EXTI1_IRQHandler                         0x080001f3   Thumb Code     0  startup_stm32f10x_md.o(.text)
    EXTI2_IRQHandler                         0x080001f3   Thumb Code     0  startup_stm32f10x_md.o(.text)
    EXTI3_IRQHandler                         0x080001f3   Thumb Code     0  startup_stm32f10x_md.o(.text)
    EXTI4_IRQHandler                         0x080001f3   Thumb Code     0  startup_stm32f10x_md.o(.text)
    EXTI9_5_IRQHandler                       0x080001f3   Thumb Code     0  startup_stm32f10x_md.o(.text)
    FLASH_IRQHandler                         0x080001f3   Thumb Code     0  startup_stm32f10x_md.o(.text)
    I2C1_ER_IRQHandler                       0x080001f3   Thumb Code     0  startup_stm32f10x_md.o(.text)
    I2C1_EV_IRQHandler                       0x080001f3   Thumb Code     0  startup_stm32f10x_md.o(.text)
    I2C2_ER_IRQHandler                       0x080001f3   Thumb Code     0  startup_stm32f10x_md.o(.text)
    I2C2_EV_IRQHandler                       0x080001f3   Thumb Code     0  startup_stm32f10x_md.o(.text)
    PVD_IRQHandler                           0x080001f3   Thumb Code     0  startup_stm32f10x_md.o(.text)
    RCC_IRQHandler                           0x080001f3   Thumb Code     0  startup_stm32f10x_md.o(.text)
    RTCAlarm_IRQHandler                      0x080001f3   Thumb Code     0  startup_stm32f10x_md.o(.text)
    RTC_IRQHandler                           0x080001f3   Thumb Code     0  startup_stm32f10x_md.o(.text)
    SPI1_IRQHandler                          0x080001f3   Thumb Code     0  startup_stm32f10x_md.o(.text)
    SPI2_IRQHandler                          0x080001f3   Thumb Code     0  startup_stm32f10x_md.o(.text)
    TAMPER_IRQHandler                        0x080001f3   Thumb Code     0  startup_stm32f10x_md.o(.text)
    TIM1_BRK_IRQHandler                      0x080001f3   Thumb Code     0  startup_stm32f10x_md.o(.text)
    TIM1_CC_IRQHandler                       0x080001f3   Thumb Code     0  startup_stm32f10x_md.o(.text)
    TIM1_TRG_COM_IRQHandler                  0x080001f3   Thumb Code     0  startup_stm32f10x_md.o(.text)
    TIM1_UP_IRQHandler                       0x080001f3   Thumb Code     0  startup_stm32f10x_md.o(.text)
    TIM2_IRQHandler                          0x080001f3   Thumb Code     0  startup_stm32f10x_md.o(.text)
    TIM3_IRQHandler                          0x080001f3   Thumb Code     0  startup_stm32f10x_md.o(.text)
    TIM4_IRQHandler                          0x080001f3   Thumb Code     0  startup_stm32f10x_md.o(.text)
    USART2_IRQHandler                        0x080001f3   Thumb Code     0  startup_stm32f10x_md.o(.text)
    USART3_IRQHandler                        0x080001f3   Thumb Code     0  startup_stm32f10x_md.o(.text)
    USBWakeUp_IRQHandler                     0x080001f3   Thumb Code     0  startup_stm32f10x_md.o(.text)
    USB_HP_CAN1_TX_IRQHandler                0x080001f3   Thumb Code     0  startup_stm32f10x_md.o(.text)
    USB_LP_CAN1_RX0_IRQHandler               0x080001f3   Thumb Code     0  startup_stm32f10x_md.o(.text)
    WWDG_IRQHandler                          0x080001f3   Thumb Code     0  startup_stm32f10x_md.o(.text)
    __user_initial_stackheap                 0x080001f5   Thumb Code     0  startup_stm32f10x_md.o(.text)
    __aeabi_errno_addr                       0x08000219   Thumb Code     8  rt_errno_addr_intlibspace.o(.text)
    __errno$intlibspace                      0x08000219   Thumb Code     0  rt_errno_addr_intlibspace.o(.text)
    __rt_errno_addr$intlibspace              0x08000219   Thumb Code     0  rt_errno_addr_intlibspace.o(.text)
    calloc                                   0x08000221   Thumb Code    40  calloc.o(.text)
    malloc                                   0x08000249   Thumb Code    94  h1_alloc.o(.text)
    free                                     0x080002a7   Thumb Code    78  h1_free.o(.text)
    realloc                                  0x080002f5   Thumb Code   184  h1_realloc.o(.text)
    strstr                                   0x080003ad   Thumb Code    36  strstr.o(.text)
    strlen                                   0x080003d1   Thumb Code    62  strlen.o(.text)
    strcat                                   0x0800040f   Thumb Code    24  strcat.o(.text)
    __aeabi_memcpy                           0x08000427   Thumb Code     0  rt_memcpy_v6.o(.text)
    __rt_memcpy                              0x08000427   Thumb Code   138  rt_memcpy_v6.o(.text)
    _memcpy_lastbytes                        0x0800048d   Thumb Code     0  rt_memcpy_v6.o(.text)
    __aeabi_memmove                          0x080004b1   Thumb Code     0  rt_memmove_v6.o(.text)
    __rt_memmove                             0x080004b1   Thumb Code   132  rt_memmove_v6.o(.text)
    __memmove_lastfew                        0x08000511   Thumb Code     0  rt_memmove_v6.o(.text)
    memcpy                                   0x08000535   Thumb Code     8  memcpy.o(.text)
    __aeabi_memcpy4                          0x0800053d   Thumb Code     0  rt_memcpy_w.o(.text)
    __aeabi_memcpy8                          0x0800053d   Thumb Code     0  rt_memcpy_w.o(.text)
    __rt_memcpy_w                            0x0800053d   Thumb Code   100  rt_memcpy_w.o(.text)
    _memcpy_lastbytes_aligned                0x08000585   Thumb Code     0  rt_memcpy_w.o(.text)
    __aeabi_memset                           0x080005a1   Thumb Code    16  aeabi_memset.o(.text)
    __aeabi_memclr                           0x080005b1   Thumb Code     0  rt_memclr.o(.text)
    __rt_memclr                              0x080005b1   Thumb Code    68  rt_memclr.o(.text)
    _memset                                  0x080005b5   Thumb Code     0  rt_memclr.o(.text)
    __aeabi_memclr4                          0x080005f5   Thumb Code     0  rt_memclr_w.o(.text)
    __aeabi_memclr8                          0x080005f5   Thumb Code     0  rt_memclr_w.o(.text)
    __rt_memclr_w                            0x080005f5   Thumb Code    78  rt_memclr_w.o(.text)
    _memset_w                                0x080005f9   Thumb Code     0  rt_memclr_w.o(.text)
    __use_two_region_memory                  0x08000643   Thumb Code     2  heapauxi.o(.text)
    __rt_heap_escrow                         0x08000645   Thumb Code     2  heapauxi.o(.text)
    __rt_heap_expand                         0x08000647   Thumb Code     2  heapauxi.o(.text)
    __user_libspace                          0x08000649   Thumb Code     8  libspace.o(.text)
    __user_perproc_libspace                  0x08000649   Thumb Code     0  libspace.o(.text)
    __user_perthread_libspace                0x08000649   Thumb Code     0  libspace.o(.text)
    __rt_heap_descriptor                     0x08000651   Thumb Code     8  rt_heap_descriptor_intlibspace.o(.text)
    __use_no_heap                            0x08000659   Thumb Code     2  hguard.o(.text)
    __heap$guard                             0x0800065b   Thumb Code     2  hguard.o(.text)
    _terminate_user_alloc                    0x0800065d   Thumb Code     2  init_alloc.o(.text)
    _init_user_alloc                         0x0800065f   Thumb Code     2  init_alloc.o(.text)
    __Heap_Full                              0x08000661   Thumb Code    34  init_alloc.o(.text)
    __Heap_Broken                            0x08000683   Thumb Code     6  init_alloc.o(.text)
    _init_alloc                              0x08000689   Thumb Code    94  init_alloc.o(.text)
    __Heap_Initialize                        0x080006e7   Thumb Code    10  h1_init.o(.text)
    __Heap_DescSize                          0x080006f1   Thumb Code     4  h1_init.o(.text)
    __aeabi_memmove4                         0x080006f5   Thumb Code     0  rt_memmove_w.o(.text)
    __aeabi_memmove8                         0x080006f5   Thumb Code     0  rt_memmove_w.o(.text)
    __rt_memmove_w                           0x080006f5   Thumb Code   122  rt_memmove_w.o(.text)
    __memmove_aligned                        0x0800071b   Thumb Code     0  rt_memmove_w.o(.text)
    __memmove_lastfew_aligned                0x08000753   Thumb Code     0  rt_memmove_w.o(.text)
    __Heap_ProvideMemory                     0x0800076f   Thumb Code    52  h1_extend.o(.text)
    __rt_SIGRTMEM                            0x080007a3   Thumb Code    14  defsig_rtmem_outer.o(.text)
    __I$use$semihosting                      0x080007b1   Thumb Code     0  use_no_semi.o(.text)
    __use_no_semihosting_swi                 0x080007b1   Thumb Code     2  use_no_semi.o(.text)
    __semihosting_library_function           0x080007b3   Thumb Code     0  indicate_semi.o(.text)
    __user_setup_stackheap                   0x080007b3   Thumb Code    74  sys_stackheap_outer.o(.text)
    exit                                     0x080007fd   Thumb Code    18  exit.o(.text)
    __sig_exit                               0x0800080f   Thumb Code    10  defsig_exit.o(.text)
    __rt_SIGRTMEM_inner                      0x08000819   Thumb Code    22  defsig_rtmem_inner.o(.text)
    _sys_exit                                0x08000869   Thumb Code     8  sys_exit.o(.text)
    __default_signal_display                 0x08000875   Thumb Code    50  defsig_general.o(.text)
    _ttywrch                                 0x080008a7   Thumb Code    14  sys_wrch.o(.text)
    ADC_Cmd                                  0x080008b5   Thumb Code    22  stm32f10x_adc.o(i.ADC_Cmd)
    ADC_DeInit                               0x080008cd   Thumb Code    78  stm32f10x_adc.o(i.ADC_DeInit)
    ADC_GetCalibrationStatus                 0x08000929   Thumb Code    20  stm32f10x_adc.o(i.ADC_GetCalibrationStatus)
    ADC_GetConversionValue                   0x0800093d   Thumb Code     8  stm32f10x_adc.o(i.ADC_GetConversionValue)
    ADC_GetFlagStatus                        0x08000945   Thumb Code    18  stm32f10x_adc.o(i.ADC_GetFlagStatus)
    ADC_GetResetCalibrationStatus            0x08000957   Thumb Code    20  stm32f10x_adc.o(i.ADC_GetResetCalibrationStatus)
    ADC_Init                                 0x0800096d   Thumb Code    70  stm32f10x_adc.o(i.ADC_Init)
    ADC_RegularChannelConfig                 0x080009bd   Thumb Code   184  stm32f10x_adc.o(i.ADC_RegularChannelConfig)
    ADC_ResetCalibration                     0x08000a75   Thumb Code    10  stm32f10x_adc.o(i.ADC_ResetCalibration)
    ADC_SoftwareStartConvCmd                 0x08000a7f   Thumb Code    22  stm32f10x_adc.o(i.ADC_SoftwareStartConvCmd)
    ADC_StartCalibration                     0x08000a95   Thumb Code    10  stm32f10x_adc.o(i.ADC_StartCalibration)
    BitStream_appendBytes                    0x08000a9f   Thumb Code    74  bitstream.o(i.BitStream_appendBytes)
    BitStream_appendNum                      0x08000ae9   Thumb Code    70  bitstream.o(i.BitStream_appendNum)
    BitStream_free                           0x08000b53   Thumb Code    20  bitstream.o(i.BitStream_free)
    BitStream_new                            0x08000b67   Thumb Code    50  bitstream.o(i.BitStream_new)
    BitStream_toByte                         0x08000b99   Thumb Code   136  bitstream.o(i.BitStream_toByte)
    BusFault_Handler                         0x08000c83   Thumb Code     4  stm32f10x_it.o(i.BusFault_Handler)
    CalulateCRC                              0x08000c87   Thumb Code   108  rc522.o(i.CalulateCRC)
    ClearBitMask                             0x08000cf3   Thumb Code    28  rc522.o(i.ClearBitMask)
    DMA1_Channel2_IRQHandler                 0x08000d11   Thumb Code    44  ws2812.o(i.DMA1_Channel2_IRQHandler)
    DMA_ClearFlag                            0x08000d45   Thumb Code    18  stm32f10x_dma.o(i.DMA_ClearFlag)
    DMA_ClearITPendingBit                    0x08000d61   Thumb Code    18  stm32f10x_dma.o(i.DMA_ClearITPendingBit)
    DMA_Cmd                                  0x08000d7d   Thumb Code    24  stm32f10x_dma.o(i.DMA_Cmd)
    DMA_DeInit                               0x08000d95   Thumb Code   324  stm32f10x_dma.o(i.DMA_DeInit)
    DMA_ITConfig                             0x08000ee1   Thumb Code    18  stm32f10x_dma.o(i.DMA_ITConfig)
    DMA_Init                                 0x08000ef3   Thumb Code    60  stm32f10x_dma.o(i.DMA_Init)
    DMA_SetCurrDataCounter                   0x08000f2f   Thumb Code     4  stm32f10x_dma.o(i.DMA_SetCurrDataCounter)
    DebugMon_Handler                         0x08000f33   Thumb Code     2  stm32f10x_it.o(i.DebugMon_Handler)
    ESP8266_Init                             0x08000f35   Thumb Code    16  esp8266.o(i.ESP8266_Init)
    ESP8266_Send_Answer                      0x08000f45   Thumb Code    96  esp8266.o(i.ESP8266_Send_Answer)
    GPIO_Init                                0x08001073   Thumb Code   278  stm32f10x_gpio.o(i.GPIO_Init)
    GPIO_ReadInputDataBit                    0x08001189   Thumb Code    18  stm32f10x_gpio.o(i.GPIO_ReadInputDataBit)
    GPIO_ResetBits                           0x0800119b   Thumb Code     4  stm32f10x_gpio.o(i.GPIO_ResetBits)
    GPIO_SetBits                             0x0800119f   Thumb Code     4  stm32f10x_gpio.o(i.GPIO_SetBits)
    GPIO_WriteBit                            0x080011a3   Thumb Code    10  stm32f10x_gpio.o(i.GPIO_WriteBit)
    GRB_to_RGB                               0x080011ad   Thumb Code    46  ws2812.o(i.GRB_to_RGB)
    HardFault_Handler                        0x080011db   Thumb Code     4  stm32f10x_it.o(i.HardFault_Handler)
    HexToStr                                 0x080011df   Thumb Code   138  commonfunction.o(i.HexToStr)
    I2C_Start                                0x08001269   Thumb Code    48  oled.o(i.I2C_Start)
    I2C_Stop                                 0x0800129d   Thumb Code    32  oled.o(i.I2C_Stop)
    I2C_WaitAck                              0x080012c1   Thumb Code    40  oled.o(i.I2C_WaitAck)
    IIC_delay                                0x080012ed   Thumb Code    16  oled.o(i.IIC_delay)
    Key_Scan                                 0x080012fd   Thumb Code    38  button.o(i.Key_Scan)
    M500PcdConfigISOType                     0x08001323   Thumb Code    92  rc522.o(i.M500PcdConfigISOType)
    MMask_evaluateSymbol                     0x0800137f   Thumb Code    76  mmask.o(i.MMask_evaluateSymbol)
    MMask_makeMask                           0x080013cd   Thumb Code    90  mmask.o(i.MMask_makeMask)
    MMask_mask                               0x0800142d   Thumb Code   138  mmask.o(i.MMask_mask)
    MMask_writeFormatInformation             0x080014bd   Thumb Code    94  mmask.o(i.MMask_writeFormatInformation)
    MQRraw_free                              0x0800151b   Thumb Code    32  qrencode.o(i.MQRraw_free)
    MQRraw_getCode                           0x0800153b   Thumb Code    56  qrencode.o(i.MQRraw_getCode)
    MQRraw_new                               0x08001573   Thumb Code   156  qrencode.o(i.MQRraw_new)
    MQRspec_getDataLength                    0x080016d1   Thumb Code    26  mqrspec.o(i.MQRspec_getDataLength)
    MQRspec_getDataLengthBit                 0x080016ed   Thumb Code    50  mqrspec.o(i.MQRspec_getDataLengthBit)
    MQRspec_getECCLength                     0x08001725   Thumb Code    20  mqrspec.o(i.MQRspec_getECCLength)
    MQRspec_getFormatInfo                    0x0800173d   Thumb Code    70  mqrspec.o(i.MQRspec_getFormatInfo)
    MQRspec_getWidth                         0x0800178d   Thumb Code    14  mqrspec.o(i.MQRspec_getWidth)
    MQRspec_lengthIndicator                  0x080017a1   Thumb Code    16  mqrspec.o(i.MQRspec_lengthIndicator)
    MQRspec_maximumWords                     0x080017b5   Thumb Code    30  mqrspec.o(i.MQRspec_maximumWords)
    MQRspec_newFrame                         0x080017d9   Thumb Code    24  mqrspec.o(i.MQRspec_newFrame)
    Mask_calcN1N3                            0x080017f1   Thumb Code   156  mask.o(i.Mask_calcN1N3)
    Mask_calcN2                              0x0800188d   Thumb Code   138  mask.o(i.Mask_calcN2)
    Mask_calcRunLengthH                      0x08001917   Thumb Code    80  mask.o(i.Mask_calcRunLengthH)
    Mask_calcRunLengthV                      0x08001967   Thumb Code    88  mask.o(i.Mask_calcRunLengthV)
    Mask_evaluateSymbol                      0x080019bf   Thumb Code   104  mask.o(i.Mask_evaluateSymbol)
    Mask_makeMask                            0x08001a29   Thumb Code    80  mask.o(i.Mask_makeMask)
    Mask_mask                                0x08001a7d   Thumb Code   184  mask.o(i.Mask_mask)
    Mask_writeFormatInformation              0x08001edb   Thumb Code   156  mask.o(i.Mask_writeFormatInformation)
    MemManage_Handler                        0x08001f77   Thumb Code     4  stm32f10x_it.o(i.MemManage_Handler)
    NMI_Handler                              0x08001f7b   Thumb Code     2  stm32f10x_it.o(i.NMI_Handler)
    NVIC_Init                                0x08001f7d   Thumb Code   100  misc.o(i.NVIC_Init)
    OLED_Clear                               0x08001fed   Thumb Code    42  oled.o(i.OLED_Clear)
    OLED_ColorTurn                           0x0800201d   Thumb Code    28  oled.o(i.OLED_ColorTurn)
    OLED_DisplayTurn                         0x08002039   Thumb Code    44  oled.o(i.OLED_DisplayTurn)
    OLED_DrawPoint                           0x08002065   Thumb Code   114  oled.o(i.OLED_DrawPoint)
    OLED_Init                                0x080020dd   Thumb Code   334  oled.o(i.OLED_Init)
    OLED_Refresh                             0x08002231   Thumb Code   100  oled.o(i.OLED_Refresh)
    OLED_ShowChar                            0x08002299   Thumb Code   300  oled.o(i.OLED_ShowChar)
    OLED_ShowString                          0x080023d5   Thumb Code    74  oled.o(i.OLED_ShowString)
    OLED_WR_Byte                             0x0800241f   Thumb Code    56  oled.o(i.OLED_WR_Byte)
    PcdAntennaOff                            0x08002457   Thumb Code    12  rc522.o(i.PcdAntennaOff)
    PcdAntennaOn                             0x08002463   Thumb Code    26  rc522.o(i.PcdAntennaOn)
    PcdAnticoll                              0x0800247d   Thumb Code   112  rc522.o(i.PcdAnticoll)
    PcdAuthState                             0x080024ed   Thumb Code   110  rc522.o(i.PcdAuthState)
    PcdComMF522                              0x0800255b   Thumb Code   306  rc522.o(i.PcdComMF522)
    PcdRead                                  0x0800268d   Thumb Code    84  rc522.o(i.PcdRead)
    PcdRequest                               0x080026e1   Thumb Code    84  rc522.o(i.PcdRequest)
    PcdReset                                 0x08002735   Thumb Code   176  rc522.o(i.PcdReset)
    PcdSelect                                0x080027ed   Thumb Code   114  rc522.o(i.PcdSelect)
    PendSV_Handler                           0x0800285f   Thumb Code     2  stm32f10x_it.o(i.PendSV_Handler)
    QRcode_encodeInput                       0x08002861   Thumb Code    32  qrencode.o(i.QRcode_encodeInput)
    QRcode_encodeMask                        0x08002881   Thumb Code   448  qrencode.o(i.QRcode_encodeMask)
    QRcode_encodeMaskMQR                     0x08002a41   Thumb Code   448  qrencode.o(i.QRcode_encodeMaskMQR)
    QRcode_encodeString                      0x08002c01   Thumb Code    36  qrencode.o(i.QRcode_encodeString)
    QRcode_free                              0x08002ca9   Thumb Code    20  qrencode.o(i.QRcode_free)
    QRcode_new                               0x08002cbd   Thumb Code    36  qrencode.o(i.QRcode_new)
    QRinput_append                           0x08002d63   Thumb Code    46  qrinput.o(i.QRinput_append)
    QRinput_check                            0x08002f4f   Thumb Code   110  qrinput.o(i.QRinput_check)
    QRinput_estimateBitStreamSize            0x080037d7   Thumb Code    38  qrinput.o(i.QRinput_estimateBitStreamSize)
    QRinput_estimateBitsMode8                0x080038c1   Thumb Code     6  qrinput.o(i.QRinput_estimateBitsMode8)
    QRinput_estimateBitsModeAn               0x080038c7   Thumb Code    28  qrinput.o(i.QRinput_estimateBitsModeAn)
    QRinput_estimateBitsModeKanji            0x08003905   Thumb Code    18  qrinput.o(i.QRinput_estimateBitsModeKanji)
    QRinput_estimateBitsModeNum              0x08003917   Thumb Code    44  qrinput.o(i.QRinput_estimateBitsModeNum)
    QRinput_estimateVersion                  0x08003943   Thumb Code    62  qrinput.o(i.QRinput_estimateVersion)
    QRinput_free                             0x08003981   Thumb Code    32  qrinput.o(i.QRinput_free)
    QRinput_getBitStream                     0x080039a1   Thumb Code    66  qrinput.o(i.QRinput_getBitStream)
    QRinput_getByteStream                    0x080039e3   Thumb Code    62  qrinput.o(i.QRinput_getByteStream)
    QRinput_getVersion                       0x08003a21   Thumb Code     6  qrinput.o(i.QRinput_getVersion)
    QRinput_isSplittableMode                 0x08003a83   Thumb Code    18  qrinput.o(i.QRinput_isSplittableMode)
    QRinput_mergeBitStream                   0x08003a95   Thumb Code    70  qrinput.o(i.QRinput_mergeBitStream)
    QRinput_new2                             0x08003adb   Thumb Code    66  qrinput.o(i.QRinput_new2)
    QRinput_newMQR                           0x08003b1d   Thumb Code    64  qrinput.o(i.QRinput_newMQR)
    QRinput_setVersion                       0x08003b5d   Thumb Code    36  qrinput.o(i.QRinput_setVersion)
    QRraw_free                               0x08003b81   Thumb Code    32  qrencode.o(i.QRraw_free)
    QRraw_getCode                            0x08003ba1   Thumb Code   122  qrencode.o(i.QRraw_getCode)
    QRraw_new                                0x08003c1b   Thumb Code   186  qrencode.o(i.QRraw_new)
    QRspec_getDataLength                     0x08003e9d   Thumb Code    36  qrspec.o(i.QRspec_getDataLength)
    QRspec_getECCLength                      0x08003ec5   Thumb Code    20  qrspec.o(i.QRspec_getECCLength)
    QRspec_getEccSpec                        0x08003edd   Thumb Code   106  qrspec.o(i.QRspec_getEccSpec)
    QRspec_getFormatInfo                     0x08003f4d   Thumb Code    26  qrspec.o(i.QRspec_getFormatInfo)
    QRspec_getMinimumVersion                 0x08003f6d   Thumb Code    58  qrspec.o(i.QRspec_getMinimumVersion)
    QRspec_getRemainder                      0x08003fad   Thumb Code    16  qrspec.o(i.QRspec_getRemainder)
    QRspec_getVersionPattern                 0x08003fc1   Thumb Code    24  qrspec.o(i.QRspec_getVersionPattern)
    QRspec_getWidth                          0x08003fdd   Thumb Code    14  qrspec.o(i.QRspec_getWidth)
    QRspec_lengthIndicator                   0x08003ff1   Thumb Code    52  qrspec.o(i.QRspec_lengthIndicator)
    QRspec_maximumWords                      0x08004029   Thumb Code    72  qrspec.o(i.QRspec_maximumWords)
    QRspec_newFrame                          0x08004075   Thumb Code    24  qrspec.o(i.QRspec_newFrame)
    RC522_Init                               0x08004189   Thumb Code   210  rc522.o(i.RC522_Init)
    RC522_System_Init                        0x08004265   Thumb Code   144  main.o(i.RC522_System_Init)
    RCC_AHBPeriphClockCmd                    0x080042fd   Thumb Code    26  stm32f10x_rcc.o(i.RCC_AHBPeriphClockCmd)
    RCC_APB1PeriphResetCmd                   0x0800431d   Thumb Code    26  stm32f10x_rcc.o(i.RCC_APB1PeriphResetCmd)
    RCC_APB2PeriphClockCmd                   0x0800433d   Thumb Code    26  stm32f10x_rcc.o(i.RCC_APB2PeriphClockCmd)
    RCC_APB2PeriphResetCmd                   0x0800435d   Thumb Code    26  stm32f10x_rcc.o(i.RCC_APB2PeriphResetCmd)
    RCC_GetClocksFreq                        0x0800437d   Thumb Code   192  stm32f10x_rcc.o(i.RCC_GetClocksFreq)
    RSECC_encode                             0x08004451   Thumb Code   186  rsecc.o(i.RSECC_encode)
    ReadRawRC                                0x08004619   Thumb Code   152  rc522.o(i.ReadRawRC)
    SVC_Handler                              0x080046b5   Thumb Code     2  stm32f10x_it.o(i.SVC_Handler)
    Send_Byte                                0x080046b9   Thumb Code    70  oled.o(i.Send_Byte)
    SetBitMask                               0x08004705   Thumb Code    28  rc522.o(i.SetBitMask)
    Split_splitStringToQRinput               0x08004c55   Thumb Code    88  split.o(i.Split_splitStringToQRinput)
    SysTick_CLKSourceConfig                  0x08004cad   Thumb Code    40  misc.o(i.SysTick_CLKSourceConfig)
    SysTick_Handler                          0x08004cd5   Thumb Code     2  stm32f10x_it.o(i.SysTick_Handler)
    SystemInit                               0x08004cd9   Thumb Code    78  system_stm32f10x.o(i.SystemInit)
    TIM_ARRPreloadConfig                     0x08004d39   Thumb Code    24  stm32f10x_tim.o(i.TIM_ARRPreloadConfig)
    TIM_Cmd                                  0x08004d51   Thumb Code    24  stm32f10x_tim.o(i.TIM_Cmd)
    TIM_CtrlPWMOutputs                       0x08004d69   Thumb Code    30  stm32f10x_tim.o(i.TIM_CtrlPWMOutputs)
    TIM_DMACmd                               0x08004d87   Thumb Code    18  stm32f10x_tim.o(i.TIM_DMACmd)
    TIM_DeInit                               0x08004d99   Thumb Code   424  stm32f10x_tim.o(i.TIM_DeInit)
    TIM_OC1Init                              0x08004f81   Thumb Code   132  stm32f10x_tim.o(i.TIM_OC1Init)
    TIM_OC1PreloadConfig                     0x08005019   Thumb Code    18  stm32f10x_tim.o(i.TIM_OC1PreloadConfig)
    TIM_TimeBaseInit                         0x0800502d   Thumb Code   122  stm32f10x_tim.o(i.TIM_TimeBaseInit)
    USART1_IRQHandler                        0x080050d1   Thumb Code    56  esp8266.o(i.USART1_IRQHandler)
    USART1_Send_Data                         0x08005115   Thumb Code    42  esp8266.o(i.USART1_Send_Data)
    USART_Cmd                                0x08005145   Thumb Code    24  stm32f10x_usart.o(i.USART_Cmd)
    USART_GetFlagStatus                      0x0800515d   Thumb Code    26  stm32f10x_usart.o(i.USART_GetFlagStatus)
    USART_GetITStatus                        0x08005177   Thumb Code    84  stm32f10x_usart.o(i.USART_GetITStatus)
    USART_ITConfig                           0x080051cb   Thumb Code    74  stm32f10x_usart.o(i.USART_ITConfig)
    USART_Init                               0x08005215   Thumb Code   210  stm32f10x_usart.o(i.USART_Init)
    USART_SendData                           0x080052ed   Thumb Code     8  stm32f10x_usart.o(i.USART_SendData)
    Uart1_Init                               0x080052f5   Thumb Code   208  esp8266.o(i.Uart1_Init)
    UsageFault_Handler                       0x080053d1   Thumb Code     4  stm32f10x_it.o(i.UsageFault_Handler)
    WaitCardOff                              0x080053d5   Thumb Code    50  rc522.o(i.WaitCardOff)
    Wheel                                    0x08005407   Thumb Code    88  ws2812.o(i.Wheel)
    WriteRawRC                               0x08005461   Thumb Code   162  rc522.o(i.WriteRawRC)
    beepInit                                 0x08005509   Thumb Code    48  beep.o(i.beepInit)
    beepOneSecOn                             0x0800553d   Thumb Code    22  beep.o(i.beepOneSecOn)
    beepState                                0x08005555   Thumb Code    16  beep.o(i.beepState)
    buttonInit                               0x08005569   Thumb Code    42  button.o(i.buttonInit)
    delay_10ms                               0x08005593   Thumb Code    26  rc522.o(i.delay_10ms)
    delay_init                               0x080055ad   Thumb Code    50  delay.o(i.delay_init)
    delay_ms                                 0x080055f1   Thumb Code    72  delay.o(i.delay_ms)
    genRandCode                              0x08005689   Thumb Code   190  main.o(i.genRandCode)
    getRND                                   0x080057e9   Thumb Code   112  rand.o(i.getRND)
    initRND                                  0x08005861   Thumb Code   142  rand.o(i.initRND)
    main                                     0x080058fd   Thumb Code  2308  main.o(i.main)
    rainbowCycle                             0x08006309   Thumb Code    70  ws2812.o(i.rainbowCycle)
    relay_init                               0x08006351   Thumb Code    38  relay.o(i.relay_init)
    relay_off                                0x0800637d   Thumb Code    12  relay.o(i.relay_off)
    relay_on                                 0x0800638d   Thumb Code    12  relay.o(i.relay_on)
    setvalue                                 0x0800639d   Thumb Code    34  ws2812.o(i.setvalue)
    strdup                                   0x080063bf   Thumb Code    38  split.o(i.strdup)
    ws2812bClearAll                          0x080063e5   Thumb Code    56  ws2812.o(i.ws2812bClearAll)
    ws2812bInit                              0x08006421   Thumb Code   252  ws2812.o(i.ws2812bInit)
    ws2812bSet                               0x0800657d   Thumb Code   154  ws2812.o(i.ws2812bSet)
    ws2812bSetAll                            0x0800661d   Thumb Code    14  ws2812.o(i.ws2812bSetAll)
    asc2_0806                                0x0800662a   Data         552  oled.o(.constdata)
    asc2_1206                                0x08006852   Data        1140  oled.o(.constdata)
    asc2_1608                                0x08006cc6   Data        1520  oled.o(.constdata)
    asc2_2412                                0x080072b6   Data        3420  oled.o(.constdata)
    Hzk1                                     0x08008012   Data         352  oled.o(.constdata)
    Hzk2                                     0x08008172   Data          72  oled.o(.constdata)
    Hzk3                                     0x080081ba   Data         128  oled.o(.constdata)
    Hzk4                                     0x0800823a   Data         512  oled.o(.constdata)
    QRinput_anTable                          0x080085ed   Data         128  qrinput.o(.constdata)
    Region$$Table$$Base                      0x080092d8   Number         0  anon$$obj.o(Region$$Table)
    Region$$Table$$Limit                     0x080092f8   Number         0  anon$$obj.o(Region$$Table)
    SystemCoreClock                          0x20000000   Data           4  system_stm32f10x.o(.data)
    AHBPrescTable                            0x20000004   Data          16  system_stm32f10x.o(.data)
    BMP1                                     0x20000028   Data        1024  main.o(.data)
    BMP2                                     0x20000428   Data        1024  main.o(.data)
    card1                                    0x20000828   Data           5  main.o(.data)
    card2                                    0x2000082d   Data           4  main.o(.data)
    snr                                      0x20000831   Data           1  main.o(.data)
    buf                                      0x20000832   Data          16  main.o(.data)
    TagType                                  0x20000842   Data           2  main.o(.data)
    SelectedSnr                              0x20000844   Data           4  main.o(.data)
    DefaultKey                               0x20000848   Data           6  main.o(.data)
    PassWd                                   0x2000084e   Data           6  main.o(.data)
    MLastSelectedSnr                         0x20000854   Data           4  main.o(.data)
    cardID                                   0x20000858   Data           4  main.o(.data)
    status                                   0x2000085c   Data           1  main.o(.data)
    securityCode                             0x2000085d   Data           7  main.o(.data)
    modeFlag                                 0x20000864   Data           1  main.o(.data)
    qrcode                                   0x20000868   Data           4  main.o(.data)
    URecv_Index                              0x20000870   Data           2  esp8266.o(.data)
    OLED_GRAM                                0x200008b4   Data        1152  oled.o(.bss)
    URecv                                    0x20000d34   Data         128  esp8266.o(.bss)
    __libspace_start                         0x20001570   Data          96  libspace.o(.bss)
    __temporary_stack_top$libspace           0x200015d0   Data           0  libspace.o(.bss)



==============================================================================

Memory Map of the image

  Image Entry point : 0x080001d9

  Load Region LR_1 (Base: 0x08000000, Size: 0x00009bac, Max: 0xffffffff, ABSOLUTE, COMPRESSED[0x00009534])

    Execution Region ER_RO (Exec base: 0x08000000, Load base: 0x08000000, Size: 0x000092f8, Max: 0xffffffff, ABSOLUTE)

    Exec Addr    Load Addr    Size         Type   Attr      Idx    E Section Name        Object

    0x08000000   0x08000000   0x000000ec   Data   RO            3    RESET               startup_stm32f10x_md.o
    0x080000ec   0x080000ec   0x00000008   Code   RO         5059  * !!!main             c_w.l(__main.o)
    0x080000f4   0x080000f4   0x00000034   Code   RO         5266    !!!scatter          c_w.l(__scatter.o)
    0x08000128   0x08000128   0x00000064   Code   RO         5264    !!dclz77c           c_w.l(__dclz77c.o)
    0x0800018c   0x0800018c   0x0000001c   Code   RO         5268    !!handler_zi        c_w.l(__scatter_zi.o)
    0x080001a8   0x080001a8   0x00000002   Code   RO         5201    .ARM.Collect$$libinit$$00000000  c_w.l(libinit.o)
    0x080001aa   0x080001aa   0x00000000   Code   RO         5097    .ARM.Collect$$libinit$$00000002  c_w.l(libinit2.o)
    0x080001aa   0x080001aa   0x00000000   Code   RO         5099    .ARM.Collect$$libinit$$00000004  c_w.l(libinit2.o)
    0x080001aa   0x080001aa   0x00000008   Code   RO         5100    .ARM.Collect$$libinit$$00000005  c_w.l(libinit2.o)
    0x080001b2   0x080001b2   0x00000000   Code   RO         5102    .ARM.Collect$$libinit$$0000000A  c_w.l(libinit2.o)
    0x080001b2   0x080001b2   0x00000000   Code   RO         5104    .ARM.Collect$$libinit$$0000000C  c_w.l(libinit2.o)
    0x080001b2   0x080001b2   0x00000000   Code   RO         5106    .ARM.Collect$$libinit$$0000000E  c_w.l(libinit2.o)
    0x080001b2   0x080001b2   0x00000000   Code   RO         5109    .ARM.Collect$$libinit$$00000011  c_w.l(libinit2.o)
    0x080001b2   0x080001b2   0x00000000   Code   RO         5111    .ARM.Collect$$libinit$$00000013  c_w.l(libinit2.o)
    0x080001b2   0x080001b2   0x00000000   Code   RO         5113    .ARM.Collect$$libinit$$00000015  c_w.l(libinit2.o)
    0x080001b2   0x080001b2   0x00000000   Code   RO         5115    .ARM.Collect$$libinit$$00000017  c_w.l(libinit2.o)
    0x080001b2   0x080001b2   0x00000000   Code   RO         5117    .ARM.Collect$$libinit$$00000019  c_w.l(libinit2.o)
    0x080001b2   0x080001b2   0x00000000   Code   RO         5119    .ARM.Collect$$libinit$$0000001B  c_w.l(libinit2.o)
    0x080001b2   0x080001b2   0x00000000   Code   RO         5121    .ARM.Collect$$libinit$$0000001D  c_w.l(libinit2.o)
    0x080001b2   0x080001b2   0x00000000   Code   RO         5123    .ARM.Collect$$libinit$$0000001F  c_w.l(libinit2.o)
    0x080001b2   0x080001b2   0x00000000   Code   RO         5125    .ARM.Collect$$libinit$$00000021  c_w.l(libinit2.o)
    0x080001b2   0x080001b2   0x00000000   Code   RO         5127    .ARM.Collect$$libinit$$00000023  c_w.l(libinit2.o)
    0x080001b2   0x080001b2   0x00000000   Code   RO         5129    .ARM.Collect$$libinit$$00000025  c_w.l(libinit2.o)
    0x080001b2   0x080001b2   0x00000000   Code   RO         5133    .ARM.Collect$$libinit$$0000002C  c_w.l(libinit2.o)
    0x080001b2   0x080001b2   0x00000000   Code   RO         5135    .ARM.Collect$$libinit$$0000002E  c_w.l(libinit2.o)
    0x080001b2   0x080001b2   0x00000000   Code   RO         5137    .ARM.Collect$$libinit$$00000030  c_w.l(libinit2.o)
    0x080001b2   0x080001b2   0x00000000   Code   RO         5139    .ARM.Collect$$libinit$$00000032  c_w.l(libinit2.o)
    0x080001b2   0x080001b2   0x00000002   Code   RO         5140    .ARM.Collect$$libinit$$00000033  c_w.l(libinit2.o)
    0x080001b4   0x080001b4   0x00000002   Code   RO         5261    .ARM.Collect$$libshutdown$$00000000  c_w.l(libshutdown.o)
    0x080001b6   0x080001b6   0x00000000   Code   RO         5215    .ARM.Collect$$libshutdown$$00000002  c_w.l(libshutdown2.o)
    0x080001b6   0x080001b6   0x00000000   Code   RO         5217    .ARM.Collect$$libshutdown$$00000004  c_w.l(libshutdown2.o)
    0x080001b6   0x080001b6   0x00000000   Code   RO         5219    .ARM.Collect$$libshutdown$$00000006  c_w.l(libshutdown2.o)
    0x080001b6   0x080001b6   0x00000000   Code   RO         5222    .ARM.Collect$$libshutdown$$00000009  c_w.l(libshutdown2.o)
    0x080001b6   0x080001b6   0x00000000   Code   RO         5225    .ARM.Collect$$libshutdown$$0000000C  c_w.l(libshutdown2.o)
    0x080001b6   0x080001b6   0x00000000   Code   RO         5227    .ARM.Collect$$libshutdown$$0000000E  c_w.l(libshutdown2.o)
    0x080001b6   0x080001b6   0x00000000   Code   RO         5230    .ARM.Collect$$libshutdown$$00000011  c_w.l(libshutdown2.o)
    0x080001b6   0x080001b6   0x00000002   Code   RO         5231    .ARM.Collect$$libshutdown$$00000012  c_w.l(libshutdown2.o)
    0x080001b8   0x080001b8   0x00000000   Code   RO         5066    .ARM.Collect$$rtentry$$00000000  c_w.l(__rtentry.o)
    0x080001b8   0x080001b8   0x00000000   Code   RO         5144    .ARM.Collect$$rtentry$$00000002  c_w.l(__rtentry2.o)
    0x080001b8   0x080001b8   0x00000006   Code   RO         5156    .ARM.Collect$$rtentry$$00000004  c_w.l(__rtentry4.o)
    0x080001be   0x080001be   0x00000000   Code   RO         5146    .ARM.Collect$$rtentry$$00000009  c_w.l(__rtentry2.o)
    0x080001be   0x080001be   0x00000004   Code   RO         5147    .ARM.Collect$$rtentry$$0000000A  c_w.l(__rtentry2.o)
    0x080001c2   0x080001c2   0x00000000   Code   RO         5149    .ARM.Collect$$rtentry$$0000000C  c_w.l(__rtentry2.o)
    0x080001c2   0x080001c2   0x00000008   Code   RO         5150    .ARM.Collect$$rtentry$$0000000D  c_w.l(__rtentry2.o)
    0x080001ca   0x080001ca   0x00000002   Code   RO         5204    .ARM.Collect$$rtexit$$00000000  c_w.l(rtexit.o)
    0x080001cc   0x080001cc   0x00000000   Code   RO         5235    .ARM.Collect$$rtexit$$00000002  c_w.l(rtexit2.o)
    0x080001cc   0x080001cc   0x00000004   Code   RO         5236    .ARM.Collect$$rtexit$$00000003  c_w.l(rtexit2.o)
    0x080001d0   0x080001d0   0x00000006   Code   RO         5237    .ARM.Collect$$rtexit$$00000004  c_w.l(rtexit2.o)
    0x080001d6   0x080001d6   0x00000002   PAD
    0x080001d8   0x080001d8   0x00000000   Code   RO         5160    .emb_text           c_w.l(maybetermalloc1.o)
    0x080001d8   0x080001d8   0x00000040   Code   RO            4  * .text               startup_stm32f10x_md.o
    0x08000218   0x08000218   0x00000008   Code   RO         4965    .text               c_w.l(rt_errno_addr_intlibspace.o)
    0x08000220   0x08000220   0x00000028   Code   RO         4973    .text               c_w.l(calloc.o)
    0x08000248   0x08000248   0x0000005e   Code   RO         4975    .text               c_w.l(h1_alloc.o)
    0x080002a6   0x080002a6   0x0000004e   Code   RO         4977    .text               c_w.l(h1_free.o)
    0x080002f4   0x080002f4   0x000000b8   Code   RO         4979    .text               c_w.l(h1_realloc.o)
    0x080003ac   0x080003ac   0x00000024   Code   RO         5037    .text               c_w.l(strstr.o)
    0x080003d0   0x080003d0   0x0000003e   Code   RO         5039    .text               c_w.l(strlen.o)
    0x0800040e   0x0800040e   0x00000018   Code   RO         5041    .text               c_w.l(strcat.o)
    0x08000426   0x08000426   0x0000008a   Code   RO         5043    .text               c_w.l(rt_memcpy_v6.o)
    0x080004b0   0x080004b0   0x00000084   Code   RO         5045    .text               c_w.l(rt_memmove_v6.o)
    0x08000534   0x08000534   0x00000008   Code   RO         5047    .text               c_w.l(memcpy.o)
    0x0800053c   0x0800053c   0x00000064   Code   RO         5049    .text               c_w.l(rt_memcpy_w.o)
    0x080005a0   0x080005a0   0x00000010   Code   RO         5051    .text               c_w.l(aeabi_memset.o)
    0x080005b0   0x080005b0   0x00000044   Code   RO         5053    .text               c_w.l(rt_memclr.o)
    0x080005f4   0x080005f4   0x0000004e   Code   RO         5055    .text               c_w.l(rt_memclr_w.o)
    0x08000642   0x08000642   0x00000006   Code   RO         5057    .text               c_w.l(heapauxi.o)
    0x08000648   0x08000648   0x00000008   Code   RO         5061    .text               c_w.l(libspace.o)
    0x08000650   0x08000650   0x00000008   Code   RO         5070    .text               c_w.l(rt_heap_descriptor_intlibspace.o)
    0x08000658   0x08000658   0x00000004   Code   RO         5072    .text               c_w.l(hguard.o)
    0x0800065c   0x0800065c   0x0000008a   Code   RO         5074    .text               c_w.l(init_alloc.o)
    0x080006e6   0x080006e6   0x0000000e   Code   RO         5078    .text               c_w.l(h1_init.o)
    0x080006f4   0x080006f4   0x0000007a   Code   RO         5092    .text               c_w.l(rt_memmove_w.o)
    0x0800076e   0x0800076e   0x00000034   Code   RO         5162    .text               c_w.l(h1_extend.o)
    0x080007a2   0x080007a2   0x0000000e   Code   RO         5166    .text               c_w.l(defsig_rtmem_outer.o)
    0x080007b0   0x080007b0   0x00000002   Code   RO         5177    .text               c_w.l(use_no_semi.o)
    0x080007b2   0x080007b2   0x00000000   Code   RO         5179    .text               c_w.l(indicate_semi.o)
    0x080007b2   0x080007b2   0x0000004a   Code   RO         5180    .text               c_w.l(sys_stackheap_outer.o)
    0x080007fc   0x080007fc   0x00000012   Code   RO         5186    .text               c_w.l(exit.o)
    0x0800080e   0x0800080e   0x0000000a   Code   RO         5188    .text               c_w.l(defsig_exit.o)
    0x08000818   0x08000818   0x00000050   Code   RO         5190    .text               c_w.l(defsig_rtmem_inner.o)
    0x08000868   0x08000868   0x0000000c   Code   RO         5202    .text               c_w.l(sys_exit.o)
    0x08000874   0x08000874   0x00000032   Code   RO         5212    .text               c_w.l(defsig_general.o)
    0x080008a6   0x080008a6   0x0000000e   Code   RO         5232    .text               c_w.l(sys_wrch.o)
    0x080008b4   0x080008b4   0x00000016   Code   RO          138    i.ADC_Cmd           stm32f10x_adc.o
    0x080008ca   0x080008ca   0x00000002   PAD
    0x080008cc   0x080008cc   0x0000005c   Code   RO          140    i.ADC_DeInit        stm32f10x_adc.o
    0x08000928   0x08000928   0x00000014   Code   RO          146    i.ADC_GetCalibrationStatus  stm32f10x_adc.o
    0x0800093c   0x0800093c   0x00000008   Code   RO          147    i.ADC_GetConversionValue  stm32f10x_adc.o
    0x08000944   0x08000944   0x00000012   Code   RO          149    i.ADC_GetFlagStatus  stm32f10x_adc.o
    0x08000956   0x08000956   0x00000014   Code   RO          152    i.ADC_GetResetCalibrationStatus  stm32f10x_adc.o
    0x0800096a   0x0800096a   0x00000002   PAD
    0x0800096c   0x0800096c   0x00000050   Code   RO          156    i.ADC_Init          stm32f10x_adc.o
    0x080009bc   0x080009bc   0x000000b8   Code   RO          160    i.ADC_RegularChannelConfig  stm32f10x_adc.o
    0x08000a74   0x08000a74   0x0000000a   Code   RO          161    i.ADC_ResetCalibration  stm32f10x_adc.o
    0x08000a7e   0x08000a7e   0x00000016   Code   RO          163    i.ADC_SoftwareStartConvCmd  stm32f10x_adc.o
    0x08000a94   0x08000a94   0x0000000a   Code   RO          165    i.ADC_StartCalibration  stm32f10x_adc.o
    0x08000a9e   0x08000a9e   0x0000004a   Code   RO         3915    i.BitStream_appendBytes  bitstream.o
    0x08000ae8   0x08000ae8   0x00000046   Code   RO         3916    i.BitStream_appendNum  bitstream.o
    0x08000b2e   0x08000b2e   0x00000024   Code   RO         3917    i.BitStream_expand  bitstream.o
    0x08000b52   0x08000b52   0x00000014   Code   RO         3918    i.BitStream_free    bitstream.o
    0x08000b66   0x08000b66   0x00000032   Code   RO         3919    i.BitStream_new     bitstream.o
    0x08000b98   0x08000b98   0x00000088   Code   RO         3920    i.BitStream_toByte  bitstream.o
    0x08000c20   0x08000c20   0x00000034   Code   RO         3921    i.BitStream_writeBytes  bitstream.o
    0x08000c54   0x08000c54   0x0000002e   Code   RO         3922    i.BitStream_writeNum  bitstream.o
    0x08000c82   0x08000c82   0x00000004   Code   RO         3108    i.BusFault_Handler  stm32f10x_it.o
    0x08000c86   0x08000c86   0x0000006c   Code   RO         3334    i.CalulateCRC       rc522.o
    0x08000cf2   0x08000cf2   0x0000001c   Code   RO         3335    i.ClearBitMask      rc522.o
    0x08000d0e   0x08000d0e   0x00000002   PAD
    0x08000d10   0x08000d10   0x00000034   Code   RO         3721    i.DMA1_Channel2_IRQHandler  ws2812.o
    0x08000d44   0x08000d44   0x0000001c   Code   RO          839    i.DMA_ClearFlag     stm32f10x_dma.o
    0x08000d60   0x08000d60   0x0000001c   Code   RO          840    i.DMA_ClearITPendingBit  stm32f10x_dma.o
    0x08000d7c   0x08000d7c   0x00000018   Code   RO          841    i.DMA_Cmd           stm32f10x_dma.o
    0x08000d94   0x08000d94   0x0000014c   Code   RO          842    i.DMA_DeInit        stm32f10x_dma.o
    0x08000ee0   0x08000ee0   0x00000012   Code   RO          846    i.DMA_ITConfig      stm32f10x_dma.o
    0x08000ef2   0x08000ef2   0x0000003c   Code   RO          847    i.DMA_Init          stm32f10x_dma.o
    0x08000f2e   0x08000f2e   0x00000004   Code   RO          848    i.DMA_SetCurrDataCounter  stm32f10x_dma.o
    0x08000f32   0x08000f32   0x00000002   Code   RO         3109    i.DebugMon_Handler  stm32f10x_it.o
    0x08000f34   0x08000f34   0x00000010   Code   RO         3674    i.ESP8266_Init      esp8266.o
    0x08000f44   0x08000f44   0x00000068   Code   RO         3675    i.ESP8266_Send_Answer  esp8266.o
    0x08000fac   0x08000fac   0x000000ae   Code   RO         4197    i.FrameFiller_next  qrencode.o
    0x0800105a   0x0800105a   0x00000018   Code   RO         4198    i.FrameFiller_set   qrencode.o
    0x08001072   0x08001072   0x00000116   Code   RO         1274    i.GPIO_Init         stm32f10x_gpio.o
    0x08001188   0x08001188   0x00000012   Code   RO         1278    i.GPIO_ReadInputDataBit  stm32f10x_gpio.o
    0x0800119a   0x0800119a   0x00000004   Code   RO         1281    i.GPIO_ResetBits    stm32f10x_gpio.o
    0x0800119e   0x0800119e   0x00000004   Code   RO         1282    i.GPIO_SetBits      stm32f10x_gpio.o
    0x080011a2   0x080011a2   0x0000000a   Code   RO         1285    i.GPIO_WriteBit     stm32f10x_gpio.o
    0x080011ac   0x080011ac   0x0000002e   Code   RO         3722    i.GRB_to_RGB        ws2812.o
    0x080011da   0x080011da   0x00000004   Code   RO         3110    i.HardFault_Handler  stm32f10x_it.o
    0x080011de   0x080011de   0x0000008a   Code   RO         3828    i.HexToStr          commonfunction.o
    0x08001268   0x08001268   0x00000034   Code   RO         3520    i.I2C_Start         oled.o
    0x0800129c   0x0800129c   0x00000024   Code   RO         3521    i.I2C_Stop          oled.o
    0x080012c0   0x080012c0   0x0000002c   Code   RO         3522    i.I2C_WaitAck       oled.o
    0x080012ec   0x080012ec   0x00000010   Code   RO         3523    i.IIC_delay         oled.o
    0x080012fc   0x080012fc   0x00000026   Code   RO         3872    i.Key_Scan          button.o
    0x08001322   0x08001322   0x0000005c   Code   RO         3336    i.M500PcdConfigISOType  rc522.o
    0x0800137e   0x0800137e   0x0000004c   Code   RO         4079    i.MMask_evaluateSymbol  mmask.o
    0x080013ca   0x080013ca   0x00000002   PAD
    0x080013cc   0x080013cc   0x00000060   Code   RO         4080    i.MMask_makeMask    mmask.o
    0x0800142c   0x0800142c   0x00000090   Code   RO         4081    i.MMask_mask        mmask.o
    0x080014bc   0x080014bc   0x0000005e   Code   RO         4082    i.MMask_writeFormatInformation  mmask.o
    0x0800151a   0x0800151a   0x00000020   Code   RO         4199    i.MQRraw_free       qrencode.o
    0x0800153a   0x0800153a   0x00000038   Code   RO         4200    i.MQRraw_getCode    qrencode.o
    0x08001572   0x08001572   0x0000009c   Code   RO         4201    i.MQRraw_new        qrencode.o
    0x0800160e   0x0800160e   0x00000002   PAD
    0x08001610   0x08001610   0x000000c0   Code   RO         4131    i.MQRspec_createFrame  mqrspec.o
    0x080016d0   0x080016d0   0x0000001a   Code   RO         4132    i.MQRspec_getDataLength  mqrspec.o
    0x080016ea   0x080016ea   0x00000002   PAD
    0x080016ec   0x080016ec   0x00000038   Code   RO         4133    i.MQRspec_getDataLengthBit  mqrspec.o
    0x08001724   0x08001724   0x00000018   Code   RO         4134    i.MQRspec_getECCLength  mqrspec.o
    0x0800173c   0x0800173c   0x00000050   Code   RO         4135    i.MQRspec_getFormatInfo  mqrspec.o
    0x0800178c   0x0800178c   0x00000014   Code   RO         4136    i.MQRspec_getWidth  mqrspec.o
    0x080017a0   0x080017a0   0x00000014   Code   RO         4137    i.MQRspec_lengthIndicator  mqrspec.o
    0x080017b4   0x080017b4   0x00000024   Code   RO         4138    i.MQRspec_maximumWords  mqrspec.o
    0x080017d8   0x080017d8   0x00000018   Code   RO         4139    i.MQRspec_newFrame  mqrspec.o
    0x080017f0   0x080017f0   0x0000009c   Code   RO         3974    i.Mask_calcN1N3     mask.o
    0x0800188c   0x0800188c   0x0000008a   Code   RO         3975    i.Mask_calcN2       mask.o
    0x08001916   0x08001916   0x00000050   Code   RO         3976    i.Mask_calcRunLengthH  mask.o
    0x08001966   0x08001966   0x00000058   Code   RO         3977    i.Mask_calcRunLengthV  mask.o
    0x080019be   0x080019be   0x00000068   Code   RO         3978    i.Mask_evaluateSymbol  mask.o
    0x08001a26   0x08001a26   0x00000002   PAD
    0x08001a28   0x08001a28   0x00000054   Code   RO         3979    i.Mask_makeMask     mask.o
    0x08001a7c   0x08001a7c   0x000000bc   Code   RO         3980    i.Mask_mask         mask.o
    0x08001b38   0x08001b38   0x00000046   Code   RO         3981    i.Mask_mask0        mask.o
    0x08001b7e   0x08001b7e   0x00000038   Code   RO         4083    i.Mask_mask0        mmask.o
    0x08001bb6   0x08001bb6   0x00000044   Code   RO         3982    i.Mask_mask1        mask.o
    0x08001bfa   0x08001bfa   0x0000004a   Code   RO         4084    i.Mask_mask1        mmask.o
    0x08001c44   0x08001c44   0x0000004e   Code   RO         3983    i.Mask_mask2        mask.o
    0x08001c92   0x08001c92   0x0000004c   Code   RO         4085    i.Mask_mask2        mmask.o
    0x08001cde   0x08001cde   0x00000050   Code   RO         3984    i.Mask_mask3        mask.o
    0x08001d2e   0x08001d2e   0x0000004c   Code   RO         4086    i.Mask_mask3        mmask.o
    0x08001d7a   0x08001d7a   0x00000058   Code   RO         3985    i.Mask_mask4        mask.o
    0x08001dd2   0x08001dd2   0x0000005c   Code   RO         3986    i.Mask_mask5        mask.o
    0x08001e2e   0x08001e2e   0x00000056   Code   RO         3987    i.Mask_mask6        mask.o
    0x08001e84   0x08001e84   0x00000056   Code   RO         3988    i.Mask_mask7        mask.o
    0x08001eda   0x08001eda   0x0000009c   Code   RO         3989    i.Mask_writeFormatInformation  mask.o
    0x08001f76   0x08001f76   0x00000004   Code   RO         3111    i.MemManage_Handler  stm32f10x_it.o
    0x08001f7a   0x08001f7a   0x00000002   Code   RO         3112    i.NMI_Handler       stm32f10x_it.o
    0x08001f7c   0x08001f7c   0x00000070   Code   RO           92    i.NVIC_Init         misc.o
    0x08001fec   0x08001fec   0x00000030   Code   RO         3524    i.OLED_Clear        oled.o
    0x0800201c   0x0800201c   0x0000001c   Code   RO         3525    i.OLED_ColorTurn    oled.o
    0x08002038   0x08002038   0x0000002c   Code   RO         3528    i.OLED_DisplayTurn  oled.o
    0x08002064   0x08002064   0x00000078   Code   RO         3531    i.OLED_DrawPoint    oled.o
    0x080020dc   0x080020dc   0x00000154   Code   RO         3532    i.OLED_Init         oled.o
    0x08002230   0x08002230   0x00000068   Code   RO         3534    i.OLED_Refresh      oled.o
    0x08002298   0x08002298   0x0000013c   Code   RO         3536    i.OLED_ShowChar     oled.o
    0x080023d4   0x080023d4   0x0000004a   Code   RO         3540    i.OLED_ShowString   oled.o
    0x0800241e   0x0800241e   0x00000038   Code   RO         3541    i.OLED_WR_Byte      oled.o
    0x08002456   0x08002456   0x0000000c   Code   RO         3337    i.PcdAntennaOff     rc522.o
    0x08002462   0x08002462   0x0000001a   Code   RO         3338    i.PcdAntennaOn      rc522.o
    0x0800247c   0x0800247c   0x00000070   Code   RO         3339    i.PcdAnticoll       rc522.o
    0x080024ec   0x080024ec   0x0000006e   Code   RO         3340    i.PcdAuthState      rc522.o
    0x0800255a   0x0800255a   0x00000132   Code   RO         3341    i.PcdComMF522       rc522.o
    0x0800268c   0x0800268c   0x00000054   Code   RO         3343    i.PcdRead           rc522.o
    0x080026e0   0x080026e0   0x00000054   Code   RO         3344    i.PcdRequest        rc522.o
    0x08002734   0x08002734   0x000000b8   Code   RO         3345    i.PcdReset          rc522.o
    0x080027ec   0x080027ec   0x00000072   Code   RO         3346    i.PcdSelect         rc522.o
    0x0800285e   0x0800285e   0x00000002   Code   RO         3113    i.PendSV_Handler    stm32f10x_it.o
    0x08002860   0x08002860   0x00000020   Code   RO         4214    i.QRcode_encodeInput  qrencode.o
    0x08002880   0x08002880   0x000001c0   Code   RO         4217    i.QRcode_encodeMask  qrencode.o
    0x08002a40   0x08002a40   0x000001c0   Code   RO         4218    i.QRcode_encodeMaskMQR  qrencode.o
    0x08002c00   0x08002c00   0x00000024   Code   RO         4219    i.QRcode_encodeString  qrencode.o
    0x08002c24   0x08002c24   0x00000084   Code   RO         4224    i.QRcode_encodeStringReal  qrencode.o
    0x08002ca8   0x08002ca8   0x00000014   Code   RO         4226    i.QRcode_free       qrencode.o
    0x08002cbc   0x08002cbc   0x00000024   Code   RO         4227    i.QRcode_new        qrencode.o
    0x08002ce0   0x08002ce0   0x0000001a   Code   RO         4412    i.QRinput_List_freeEntry  qrinput.o
    0x08002cfa   0x08002cfa   0x00000068   Code   RO         4413    i.QRinput_List_newEntry  qrinput.o
    0x08002d62   0x08002d62   0x0000002e   Code   RO         4421    i.QRinput_append    qrinput.o
    0x08002d90   0x08002d90   0x00000016   Code   RO         4423    i.QRinput_appendEntry  qrinput.o
    0x08002da6   0x08002da6   0x000000aa   Code   RO         4424    i.QRinput_appendPaddingBit  qrinput.o
    0x08002e50   0x08002e50   0x000000fe   Code   RO         4425    i.QRinput_appendPaddingBitMQR  qrinput.o
    0x08002f4e   0x08002f4e   0x0000006e   Code   RO         4427    i.QRinput_check     qrinput.o
    0x08002fbc   0x08002fbc   0x00000038   Code   RO         4428    i.QRinput_checkModeAn  qrinput.o
    0x08002ff4   0x08002ff4   0x00000010   Code   RO         4429    i.QRinput_checkModeFNC1Second  qrinput.o
    0x08003004   0x08003004   0x00000050   Code   RO         4430    i.QRinput_checkModeKanji  qrinput.o
    0x08003054   0x08003054   0x00000024   Code   RO         4431    i.QRinput_checkModeNum  qrinput.o
    0x08003078   0x08003078   0x00000070   Code   RO         4432    i.QRinput_convertData  qrinput.o
    0x080030e8   0x080030e8   0x00000034   Code   RO         4433    i.QRinput_createBitStream  qrinput.o
    0x0800311c   0x0800311c   0x0000001a   Code   RO         4434    i.QRinput_decodeECIfromByteArray  qrinput.o
    0x08003136   0x08003136   0x0000014c   Code   RO         4436    i.QRinput_encodeBitStream  qrinput.o
    0x08003282   0x08003282   0x000000aa   Code   RO         4437    i.QRinput_encodeMode8  qrinput.o
    0x0800332c   0x0800332c   0x0000014c   Code   RO         4438    i.QRinput_encodeModeAn  qrinput.o
    0x08003478   0x08003478   0x00000062   Code   RO         4439    i.QRinput_encodeModeECI  qrinput.o
    0x080034da   0x080034da   0x00000036   Code   RO         4440    i.QRinput_encodeModeFNC1Second  qrinput.o
    0x08003510   0x08003510   0x000000f0   Code   RO         4441    i.QRinput_encodeModeKanji  qrinput.o
    0x08003600   0x08003600   0x00000156   Code   RO         4442    i.QRinput_encodeModeNum  qrinput.o
    0x08003756   0x08003756   0x00000080   Code   RO         4443    i.QRinput_encodeModeStructure  qrinput.o
    0x080037d6   0x080037d6   0x00000026   Code   RO         4444    i.QRinput_estimateBitStreamSize  qrinput.o
    0x080037fc   0x080037fc   0x000000c4   Code   RO         4445    i.QRinput_estimateBitStreamSizeOfEntry  qrinput.o
    0x080038c0   0x080038c0   0x00000006   Code   RO         4446    i.QRinput_estimateBitsMode8  qrinput.o
    0x080038c6   0x080038c6   0x0000001c   Code   RO         4447    i.QRinput_estimateBitsModeAn  qrinput.o
    0x080038e2   0x080038e2   0x00000022   Code   RO         4448    i.QRinput_estimateBitsModeECI  qrinput.o
    0x08003904   0x08003904   0x00000012   Code   RO         4449    i.QRinput_estimateBitsModeKanji  qrinput.o
    0x08003916   0x08003916   0x0000002c   Code   RO         4450    i.QRinput_estimateBitsModeNum  qrinput.o
    0x08003942   0x08003942   0x0000003e   Code   RO         4451    i.QRinput_estimateVersion  qrinput.o
    0x08003980   0x08003980   0x00000020   Code   RO         4452    i.QRinput_free      qrinput.o
    0x080039a0   0x080039a0   0x00000042   Code   RO         4453    i.QRinput_getBitStream  qrinput.o
    0x080039e2   0x080039e2   0x0000003e   Code   RO         4454    i.QRinput_getByteStream  qrinput.o
    0x08003a20   0x08003a20   0x00000006   Code   RO         4456    i.QRinput_getVersion  qrinput.o
    0x08003a26   0x08003a26   0x0000005c   Code   RO         4457    i.QRinput_insertFNC1Header  qrinput.o
    0x08003a82   0x08003a82   0x00000012   Code   RO         4459    i.QRinput_isSplittableMode  qrinput.o
    0x08003a94   0x08003a94   0x00000046   Code   RO         4461    i.QRinput_mergeBitStream  qrinput.o
    0x08003ada   0x08003ada   0x00000042   Code   RO         4463    i.QRinput_new2      qrinput.o
    0x08003b1c   0x08003b1c   0x00000040   Code   RO         4464    i.QRinput_newMQR    qrinput.o
    0x08003b5c   0x08003b5c   0x00000024   Code   RO         4468    i.QRinput_setVersion  qrinput.o
    0x08003b80   0x08003b80   0x00000020   Code   RO         4228    i.QRraw_free        qrencode.o
    0x08003ba0   0x08003ba0   0x0000007a   Code   RO         4229    i.QRraw_getCode     qrencode.o
    0x08003c1a   0x08003c1a   0x000000ba   Code   RO         4230    i.QRraw_new         qrencode.o
    0x08003cd4   0x08003cd4   0x000001c8   Code   RO         4773    i.QRspec_createFrame  qrspec.o
    0x08003e9c   0x08003e9c   0x00000028   Code   RO         4774    i.QRspec_getDataLength  qrspec.o
    0x08003ec4   0x08003ec4   0x00000018   Code   RO         4775    i.QRspec_getECCLength  qrspec.o
    0x08003edc   0x08003edc   0x00000070   Code   RO         4776    i.QRspec_getEccSpec  qrspec.o
    0x08003f4c   0x08003f4c   0x00000020   Code   RO         4777    i.QRspec_getFormatInfo  qrspec.o
    0x08003f6c   0x08003f6c   0x00000040   Code   RO         4778    i.QRspec_getMinimumVersion  qrspec.o
    0x08003fac   0x08003fac   0x00000014   Code   RO         4779    i.QRspec_getRemainder  qrspec.o
    0x08003fc0   0x08003fc0   0x0000001c   Code   RO         4780    i.QRspec_getVersionPattern  qrspec.o
    0x08003fdc   0x08003fdc   0x00000014   Code   RO         4781    i.QRspec_getWidth   qrspec.o
    0x08003ff0   0x08003ff0   0x00000038   Code   RO         4782    i.QRspec_lengthIndicator  qrspec.o
    0x08004028   0x08004028   0x0000004c   Code   RO         4783    i.QRspec_maximumWords  qrspec.o
    0x08004074   0x08004074   0x00000018   Code   RO         4784    i.QRspec_newFrame   qrspec.o
    0x0800408c   0x0800408c   0x00000034   Code   RO         4785    i.QRspec_putAlignmentMarker  qrspec.o
    0x080040c0   0x080040c0   0x000000c8   Code   RO         4786    i.QRspec_putAlignmentPattern  qrspec.o
    0x08004188   0x08004188   0x000000dc   Code   RO         3348    i.RC522_Init        rc522.o
    0x08004264   0x08004264   0x00000098   Code   RO         3171    i.RC522_System_Init  main.o
    0x080042fc   0x080042fc   0x00000020   Code   RO         1698    i.RCC_AHBPeriphClockCmd  stm32f10x_rcc.o
    0x0800431c   0x0800431c   0x00000020   Code   RO         1700    i.RCC_APB1PeriphResetCmd  stm32f10x_rcc.o
    0x0800433c   0x0800433c   0x00000020   Code   RO         1701    i.RCC_APB2PeriphClockCmd  stm32f10x_rcc.o
    0x0800435c   0x0800435c   0x00000020   Code   RO         1702    i.RCC_APB2PeriphResetCmd  stm32f10x_rcc.o
    0x0800437c   0x0800437c   0x000000d4   Code   RO         1709    i.RCC_GetClocksFreq  stm32f10x_rcc.o
    0x08004450   0x08004450   0x000000d0   Code   RO         4867    i.RSECC_encode      rsecc.o
    0x08004520   0x08004520   0x00000020   Code   RO         4868    i.RSECC_init        rsecc.o
    0x08004540   0x08004540   0x0000003c   Code   RO         4869    i.RSECC_initLookupTable  rsecc.o
    0x0800457c   0x0800457c   0x00000072   Code   RO         4231    i.RSblock_init      qrencode.o
    0x080045ee   0x080045ee   0x0000002a   Code   RO         4232    i.RSblock_initBlock  qrencode.o
    0x08004618   0x08004618   0x0000009c   Code   RO         3349    i.ReadRawRC         rc522.o
    0x080046b4   0x080046b4   0x00000002   Code   RO         3114    i.SVC_Handler       stm32f10x_it.o
    0x080046b6   0x080046b6   0x00000002   PAD
    0x080046b8   0x080046b8   0x0000004c   Code   RO         3542    i.Send_Byte         oled.o
    0x08004704   0x08004704   0x0000001c   Code   RO         3350    i.SetBitMask        rc522.o
    0x08004720   0x08004720   0x00000008   Code   RO           24    i.SetSysClock       system_stm32f10x.o
    0x08004728   0x08004728   0x000000e0   Code   RO           25    i.SetSysClockTo72   system_stm32f10x.o
    0x08004808   0x08004808   0x00000144   Code   RO         4897    i.Split_eat8        split.o
    0x0800494c   0x0800494c   0x00000124   Code   RO         4898    i.Split_eatAn       split.o
    0x08004a70   0x08004a70   0x0000003c   Code   RO         4899    i.Split_eatKanji    split.o
    0x08004aac   0x08004aac   0x000000c0   Code   RO         4900    i.Split_eatNum      split.o
    0x08004b6c   0x08004b6c   0x00000070   Code   RO         4901    i.Split_identifyMode  split.o
    0x08004bdc   0x08004bdc   0x00000078   Code   RO         4902    i.Split_splitString  split.o
    0x08004c54   0x08004c54   0x00000058   Code   RO         4903    i.Split_splitStringToQRinput  split.o
    0x08004cac   0x08004cac   0x00000028   Code   RO           96    i.SysTick_CLKSourceConfig  misc.o
    0x08004cd4   0x08004cd4   0x00000002   Code   RO         3115    i.SysTick_Handler   stm32f10x_it.o
    0x08004cd6   0x08004cd6   0x00000002   PAD
    0x08004cd8   0x08004cd8   0x00000060   Code   RO           27    i.SystemInit        system_stm32f10x.o
    0x08004d38   0x08004d38   0x00000018   Code   RO         2327    i.TIM_ARRPreloadConfig  stm32f10x_tim.o
    0x08004d50   0x08004d50   0x00000018   Code   RO         2339    i.TIM_Cmd           stm32f10x_tim.o
    0x08004d68   0x08004d68   0x0000001e   Code   RO         2341    i.TIM_CtrlPWMOutputs  stm32f10x_tim.o
    0x08004d86   0x08004d86   0x00000012   Code   RO         2342    i.TIM_DMACmd        stm32f10x_tim.o
    0x08004d98   0x08004d98   0x000001e8   Code   RO         2344    i.TIM_DeInit        stm32f10x_tim.o
    0x08004f80   0x08004f80   0x00000098   Code   RO         2368    i.TIM_OC1Init       stm32f10x_tim.o
    0x08005018   0x08005018   0x00000012   Code   RO         2371    i.TIM_OC1PreloadConfig  stm32f10x_tim.o
    0x0800502a   0x0800502a   0x00000002   PAD
    0x0800502c   0x0800502c   0x000000a4   Code   RO         2410    i.TIM_TimeBaseInit  stm32f10x_tim.o
    0x080050d0   0x080050d0   0x00000044   Code   RO         3676    i.USART1_IRQHandler  esp8266.o
    0x08005114   0x08005114   0x00000030   Code   RO         3677    i.USART1_Send_Data  esp8266.o
    0x08005144   0x08005144   0x00000018   Code   RO         2875    i.USART_Cmd         stm32f10x_usart.o
    0x0800515c   0x0800515c   0x0000001a   Code   RO         2878    i.USART_GetFlagStatus  stm32f10x_usart.o
    0x08005176   0x08005176   0x00000054   Code   RO         2879    i.USART_GetITStatus  stm32f10x_usart.o
    0x080051ca   0x080051ca   0x0000004a   Code   RO         2881    i.USART_ITConfig    stm32f10x_usart.o
    0x08005214   0x08005214   0x000000d8   Code   RO         2882    i.USART_Init        stm32f10x_usart.o
    0x080052ec   0x080052ec   0x00000008   Code   RO         2892    i.USART_SendData    stm32f10x_usart.o
    0x080052f4   0x080052f4   0x000000dc   Code   RO         3678    i.Uart1_Init        esp8266.o
    0x080053d0   0x080053d0   0x00000004   Code   RO         3116    i.UsageFault_Handler  stm32f10x_it.o
    0x080053d4   0x080053d4   0x00000032   Code   RO         3351    i.WaitCardOff       rc522.o
    0x08005406   0x08005406   0x00000058   Code   RO         3723    i.Wheel             ws2812.o
    0x0800545e   0x0800545e   0x00000002   PAD
    0x08005460   0x08005460   0x000000a8   Code   RO         3352    i.WriteRawRC        rc522.o
    0x08005508   0x08005508   0x00000034   Code   RO         3298    i.beepInit          beep.o
    0x0800553c   0x0800553c   0x00000016   Code   RO         3301    i.beepOneSecOn      beep.o
    0x08005552   0x08005552   0x00000002   PAD
    0x08005554   0x08005554   0x00000014   Code   RO         3302    i.beepState         beep.o
    0x08005568   0x08005568   0x0000002a   Code   RO         3873    i.buttonInit        button.o
    0x08005592   0x08005592   0x0000001a   Code   RO         3353    i.delay_10ms        rc522.o
    0x080055ac   0x080055ac   0x00000044   Code   RO         3460    i.delay_init        delay.o
    0x080055f0   0x080055f0   0x0000004c   Code   RO         3461    i.delay_ms          delay.o
    0x0800563c   0x0800563c   0x0000004c   Code   RO         4904    i.dupAndToUpper     split.o
    0x08005688   0x08005688   0x000000c4   Code   RO         3172    i.genRandCode       main.o
    0x0800574c   0x0800574c   0x0000009c   Code   RO         4870    i.generator_init    rsecc.o
    0x080057e8   0x080057e8   0x00000078   Code   RO         3852    i.getRND            rand.o
    0x08005860   0x08005860   0x0000009c   Code   RO         3853    i.initRND           rand.o
    0x080058fc   0x080058fc   0x000009ac   Code   RO         3173    i.main              main.o
    0x080062a8   0x080062a8   0x00000030   Code   RO         4140    i.putFinderPattern  mqrspec.o
    0x080062d8   0x080062d8   0x00000030   Code   RO         4787    i.putFinderPattern  qrspec.o
    0x08006308   0x08006308   0x00000046   Code   RO         3725    i.rainbowCycle      ws2812.o
    0x0800634e   0x0800634e   0x00000002   PAD
    0x08006350   0x08006350   0x0000002c   Code   RO         3890    i.relay_init        relay.o
    0x0800637c   0x0800637c   0x00000010   Code   RO         3891    i.relay_off         relay.o
    0x0800638c   0x0800638c   0x00000010   Code   RO         3892    i.relay_on          relay.o
    0x0800639c   0x0800639c   0x00000022   Code   RO         3726    i.setvalue          ws2812.o
    0x080063be   0x080063be   0x00000026   Code   RO         4905    i.strdup            split.o
    0x080063e4   0x080063e4   0x0000003c   Code   RO         3728    i.ws2812bClearAll   ws2812.o
    0x08006420   0x08006420   0x0000012c   Code   RO         3729    i.ws2812bInit       ws2812.o
    0x0800654c   0x0800654c   0x00000030   Code   RO         3730    i.ws2812bSend       ws2812.o
    0x0800657c   0x0800657c   0x000000a0   Code   RO         3731    i.ws2812bSet        ws2812.o
    0x0800661c   0x0800661c   0x0000000e   Code   RO         3732    i.ws2812bSetAll     ws2812.o
    0x0800662a   0x0800662a   0x00001e10   Data   RO         3544    .constdata          oled.o
    0x0800843a   0x0800843a   0x00000002   PAD
    0x0800843c   0x0800843c   0x00000020   Data   RO         3680    .constdata          esp8266.o
    0x0800845c   0x0800845c   0x00000191   Data   RO         4141    .constdata          mqrspec.o
    0x080085ed   0x080085ed   0x00000080   Data   RO         4472    .constdata          qrinput.o
    0x0800866d   0x0800866d   0x00000003   PAD
    0x08008670   0x08008670   0x00000c66   Data   RO         4788    .constdata          qrspec.o
    0x080092d6   0x080092d6   0x00000002   PAD
    0x080092d8   0x080092d8   0x00000020   Data   RO         5262    Region$$Table       anon$$obj.o


    Execution Region ER_RW (Exec base: 0x20000000, Load base: 0x080092f8, Size: 0x000008b4, Max: 0xffffffff, ABSOLUTE, COMPRESSED[0x0000023c])

    Exec Addr    Load Addr    Size         Type   Attr      Idx    E Section Name        Object

    0x20000000   COMPRESSED   0x00000014   Data   RW           28    .data               system_stm32f10x.o
    0x20000014   COMPRESSED   0x00000014   Data   RW         1729    .data               stm32f10x_rcc.o
    0x20000028   COMPRESSED   0x00000844   Data   RW         3176    .data               main.o
    0x2000086c   COMPRESSED   0x00000004   Data   RW         3463    .data               delay.o
    0x20000870   COMPRESSED   0x00000002   Data   RW         3681    .data               esp8266.o
    0x20000872   COMPRESSED   0x0000000a   Data   RW         3736    .data               ws2812.o
    0x2000087c   COMPRESSED   0x00000001   Data   RW         3854    .data               rand.o
    0x2000087d   COMPRESSED   0x00000003   PAD
    0x20000880   COMPRESSED   0x00000020   Data   RW         3990    .data               mask.o
    0x200008a0   COMPRESSED   0x00000010   Data   RW         4087    .data               mmask.o
    0x200008b0   COMPRESSED   0x00000004   Data   RW         4872    .data               rsecc.o


    Execution Region ER_ZI (Exec base: 0x200008b4, Load base: 0x08009534, Size: 0x00003d1c, Max: 0xffffffff, ABSOLUTE)

    Exec Addr    Load Addr    Size         Type   Attr      Idx    E Section Name        Object

    0x200008b4        -       0x00000480   Zero   RW         3543    .bss                oled.o
    0x20000d34        -       0x00000080   Zero   RW         3679    .bss                esp8266.o
    0x20000db4        -       0x0000021c   Zero   RW         3735    .bss                ws2812.o
    0x20000fd0        -       0x000005a0   Zero   RW         4871    .bss                rsecc.o
    0x20001570        -       0x00000060   Zero   RW         5062    .bss                c_w.l(libspace.o)
    0x200015d0        -       0x00001000   Zero   RW            2    HEAP                startup_stm32f10x_md.o
    0x200025d0        -       0x00002000   Zero   RW            1    STACK               startup_stm32f10x_md.o


==============================================================================

Image component sizes


      Code (inc. data)   RO Data    RW Data    ZI Data      Debug   Object Name

        94          8          0          0          0       1410   beep.o
       484          0          0          0          0       6294   bitstream.o
        80          0          0          0          0       1564   button.o
       138          0          0          0          0        907   commonfunction.o
         0          0          0          0          0       4508   core_cm3.o
       144         22          0          4          0       1160   delay.o
       456         38         32          2        128       3741   esp8266.o
      2824        702          0       2116          0       8327   main.o
      1642          8          0         32          0      13874   mask.o
       152         12          0          0          0       1646   misc.o
       692         12          0         16          0       7112   mmask.o
       526         48        401          0          0       7725   mqrspec.o
      1354         56       7696          0       1152      10927   oled.o
      2090          0          0          0          0      15190   qrencode.o
      3744         38        128          0          0      32100   qrinput.o
      1252         70       3174          0          0      11967   qrspec.o
       276         22          0          1          0       1735   rand.o
      1908         28          0          0          0      11974   rc522.o
        76         14          0          0          0       1348   relay.o
       456         56          0          4       1440       3595   rsecc.o
      1302         16          0          0          0      11060   split.o
        64         26        236          0      12288        928   startup_stm32f10x_md.o
       486         24          0          0          0       8958   stm32f10x_adc.o
       494         28          0          0          0       5846   stm32f10x_dma.o
       314          0          0          0          0       4428   stm32f10x_gpio.o
        26          0          0          0          0       3590   stm32f10x_it.o
       340         44          0         20          0       5763   stm32f10x_rcc.o
       918        126          0          0          0       5824   stm32f10x_tim.o
       432          6          0          0          0       5845   stm32f10x_usart.o
       328         28          0         20          0     268897   system_stm32f10x.o
       872         76          0         10        540       6483   ws2812.o

    ----------------------------------------------------------------------
     23990       1508      11706       2228      15548     474726   Object Totals
         0          0         32          0          0          0   (incl. Generated)
        26          0          7          3          0          0   (incl. Padding)

    ----------------------------------------------------------------------

      Code (inc. data)   RO Data    RW Data    ZI Data      Debug   Library Member Name

       100          0          0          0          0          0   __dclz77c.o
         8          0          0          0          0         68   __main.o
         0          0          0          0          0          0   __rtentry.o
        12          0          0          0          0          0   __rtentry2.o
         6          0          0          0          0          0   __rtentry4.o
        52          8          0          0          0          0   __scatter.o
        28          0          0          0          0          0   __scatter_zi.o
        16          0          0          0          0         68   aeabi_memset.o
        40          0          0          0          0         80   calloc.o
        10          0          0          0          0         68   defsig_exit.o
        50          0          0          0          0         88   defsig_general.o
        80         58          0          0          0         76   defsig_rtmem_inner.o
        14          0          0          0          0         80   defsig_rtmem_outer.o
        18          0          0          0          0         80   exit.o
        94          0          0          0          0         80   h1_alloc.o
        52          0          0          0          0         68   h1_extend.o
        78          0          0          0          0         80   h1_free.o
        14          0          0          0          0         84   h1_init.o
       184          0          0          0          0         92   h1_realloc.o
         6          0          0          0          0        152   heapauxi.o
         4          0          0          0          0        136   hguard.o
         0          0          0          0          0          0   indicate_semi.o
       138          0          0          0          0        168   init_alloc.o
         2          0          0          0          0          0   libinit.o
        10          0          0          0          0          0   libinit2.o
         2          0          0          0          0          0   libshutdown.o
         2          0          0          0          0          0   libshutdown2.o
         8          4          0          0         96         68   libspace.o
         0          0          0          0          0          0   maybetermalloc1.o
         8          0          0          0          0         76   memcpy.o
         8          4          0          0          0         68   rt_errno_addr_intlibspace.o
         8          4          0          0          0         68   rt_heap_descriptor_intlibspace.o
        68          0          0          0          0         68   rt_memclr.o
        78          0          0          0          0         80   rt_memclr_w.o
       138          0          0          0          0         68   rt_memcpy_v6.o
       100          0          0          0          0         80   rt_memcpy_w.o
       132          0          0          0          0         68   rt_memmove_v6.o
       122          0          0          0          0         80   rt_memmove_w.o
         2          0          0          0          0          0   rtexit.o
        10          0          0          0          0          0   rtexit2.o
        24          0          0          0          0         68   strcat.o
        62          0          0          0          0         76   strlen.o
        36          0          0          0          0         80   strstr.o
        12          4          0          0          0         68   sys_exit.o
        74          0          0          0          0         80   sys_stackheap_outer.o
        14          0          0          0          0         76   sys_wrch.o
         2          0          0          0          0         68   use_no_semi.o

    ----------------------------------------------------------------------
      1928         82          0          0         96       2708   Library Totals
         2          0          0          0          0          0   (incl. Padding)

    ----------------------------------------------------------------------

      Code (inc. data)   RO Data    RW Data    ZI Data      Debug   Library Name

      1926         82          0          0         96       2708   c_w.l

    ----------------------------------------------------------------------
      1928         82          0          0         96       2708   Library Totals

    ----------------------------------------------------------------------

==============================================================================


      Code (inc. data)   RO Data    RW Data    ZI Data      Debug   

     25918       1590      11706       2228      15644     463286   Grand Totals
     25918       1590      11706        572      15644     463286   ELF Image Totals (compressed)
     25918       1590      11706        572          0          0   ROM Totals

==============================================================================

    Total RO  Size (Code + RO Data)                37624 (  36.74kB)
    Total RW  Size (RW Data + ZI Data)             17872 (  17.45kB)
    Total ROM Size (Code + RO Data + RW Data)      38196 (  37.30kB)

==============================================================================

